BL51 BANKED LINKER/LOCATER V6.22                                                        08/26/2015  16:38:21  PAGE 1


BL51 BANKED LINKER/LOCATER V6.22, INVOKED BY:
D:\KEIL\C51\BIN\BL51.EXE RA8876.obj TO sd RAMSIZE (256)


MEMORY MODEL: LARGE WITH FLOATING POINT ARITHMETIC


INPUT MODULES INCLUDED:
  RA8876.obj (RA8876)
  D:\KEIL\C51\LIB\C51FPL.LIB (?C?FPADD)
  D:\KEIL\C51\LIB\C51FPL.LIB (?C?FPMUL)
  D:\KEIL\C51\LIB\C51FPL.LIB (?C?FPDIV)
  D:\KEIL\C51\LIB\C51FPL.LIB (?C?FPCMP)
  D:\KEIL\C51\LIB\C51FPL.LIB (?C?FCAST)
  D:\KEIL\C51\LIB\C51FPL.LIB (?C?CASTF)
  D:\KEIL\C51\LIB\C51FPL.LIB (SQRT)
  D:\KEIL\C51\LIB\C51FPL.LIB (?C?FPGETOPN)
  D:\KEIL\C51\LIB\C51L.LIB (?C_STARTUP)
  D:\KEIL\C51\LIB\C51L.LIB (?C?CLDPTR)
  D:\KEIL\C51\LIB\C51L.LIB (?C?CSTPTR)
  D:\KEIL\C51\LIB\C51L.LIB (?C?IMUL)
  D:\KEIL\C51\LIB\C51L.LIB (?C?UIDIV)
  D:\KEIL\C51\LIB\C51L.LIB (?C?SIDIV)
  D:\KEIL\C51\LIB\C51L.LIB (?C?IILDX)
  D:\KEIL\C51\LIB\C51L.LIB (?C?ILDIX)
  D:\KEIL\C51\LIB\C51L.LIB (?C?ILDOPTR)
  D:\KEIL\C51\LIB\C51L.LIB (?C?ISTPTR)
  D:\KEIL\C51\LIB\C51L.LIB (?C?LMUL)
  D:\KEIL\C51\LIB\C51L.LIB (?C?LNEG)
  D:\KEIL\C51\LIB\C51L.LIB (?C?ULCMP)
  D:\KEIL\C51\LIB\C51L.LIB (?C?ULSHR)
  D:\KEIL\C51\LIB\C51L.LIB (?C?LLDXDATA)
  D:\KEIL\C51\LIB\C51L.LIB (?C?LSTXDATA)
  D:\KEIL\C51\LIB\C51L.LIB (?C?LSTKXDATA)
  D:\KEIL\C51\LIB\C51L.LIB (RAND)
  D:\KEIL\C51\LIB\C51L.LIB (ABS)
  D:\KEIL\C51\LIB\C51L.LIB (?C_INIT)


LINK MAP OF MODULE:  sd (RA8876)


            TYPE    BASE      LENGTH    RELOCATION   SEGMENT NAME
            -----------------------------------------------------

            * * * * * * *   D A T A   M E M O R Y   * * * * * * *
            REG     0000H     0008H     ABSOLUTE     "REG BANK 0"
            IDATA   0008H     0001H     UNIT         ?STACK

            * * * * * * *  X D A T A   M E M O R Y  * * * * * * *
            XDATA   0000H     0213H     UNIT         ?XD?RA8876
            XDATA   0213H     005AH     UNIT         _XDATA_GROUP_
            XDATA   026DH     0009H     UNIT         ?XD?_SDWRITEBLOCK?RA8876
            XDATA   0276H     0006H     UNIT         ?XD?_LCD_CLEAR?RA8876
            XDATA   027CH     0004H     UNIT         ?XD?_GOTO_LINEAR_ADDR?RA8876
            XDATA   0280H     0004H     UNIT         ?XD?_S1_CONSTANT_COLOR_16M?RA8876
            XDATA   0284H     0004H     UNIT         ?XD?_SFI_DMA_DESTINATION_START_ADDRESS?RA8876
            XDATA   0288H     0004H     UNIT         ?XD?_SFI_DMA_TRANSFER_NUMBER?RA8876
BL51 BANKED LINKER/LOCATER V6.22                                                      08/26/2015  16:38:21  PAGE 2


            XDATA   028CH     0004H     UNIT         ?XD?_FOREGROUND_COLOR_16M?RA8876
            XDATA   0290H     0004H     UNIT         ?XD?_BACKGROUND_COLOR_16M?RA8876
            XDATA   0294H     0004H     UNIT         ?XD?_CGRAM_START_ADDRESS?RA8876
            XDATA   0298H     0004H     UNIT         ?XD?RAND?RAND
            XDATA   029CH     0002H     UNIT         ?XD?_DELAY10MS?RA8876

            * * * * * * *   C O D E   M E M O R Y   * * * * * * *
            CODE    0000H     0003H     ABSOLUTE     
            CODE    0003H     75AFH     UNIT         ?CO?RA8876
            CODE    75B2H     087EH     UNIT         ?PR?TP_ADJUST?RA8876
            CODE    7E30H     05DFH     UNIT         ?C?LIB_CODE
            CODE    840FH     03B9H     UNIT         ?PR?PIP_DEMO?RA8876
            CODE    87C8H     0373H     UNIT         ?PR?APP_DEMO_MULTI_FRAME_BUFFER?RA8876
            CODE    8B3BH     0365H     UNIT         ?PR?TEXT_DEMO?RA8876
            CODE    8EA0H     0348H     UNIT         ?PR?GEOMETRIC?RA8876
            CODE    91E8H     02E5H     UNIT         ?PR?APP_DEMO_WAVEFORM?RA8876
            CODE    94CDH     02DEH     UNIT         ?PR?TPTEST?RA8876
            CODE    97ABH     029CH     UNIT         ?PR?BTE_COMPARE?RA8876
            CODE    9A47H     0291H     UNIT         ?PR?APP_DEMO_SCROLLING_TEXT?RA8876
            CODE    9CD8H     0233H     UNIT         ?C_INITSEG
            CODE    9F0BH     0216H     UNIT         ?PR?GRAY?RA8876
            CODE    A121H     020CH     UNIT         ?PR?BTE_COLOR_EXPANSION?RA8876
            CODE    A32DH     0200H     UNIT         ?PR?APP_DEMO_ALPHA_BLENDING?RA8876
            CODE    A52DH     01ECH     UNIT         ?PR?APP_DEMO_SLIDE_FRAME_BUFFER?RA8876
            CODE    A719H     01E7H     UNIT         ?PR?_LCD_DRAWLINE?RA8876
            CODE    A900H     0193H     UNIT         ?PR?_TP_READ_XOY?RA8876
            CODE    AA93H     016EH     UNIT         ?PR?BTE_PATTERN_FILL?RA8876
            CODE    AC01H     016CH     UNIT         ?PR?RA8876_PLL_INITIAL?RA8876
            CODE    AD6DH     0144H     UNIT         ?PR?DISPLAY_JPG_SDCARD?RA8876
            CODE    AEB1H     0131H     UNIT         ?PR?_TP_READ_XY2?RA8876
            CODE    AFE2H     0116H     UNIT         ?PR?_LCD_PUTCHAR?RA8876
            CODE    B0F8H     0105H     UNIT         ?PR?_TP_DROW_TOUCH_POINT?RA8876
            CODE    B1FDH     00E2H     UNIT         ?PR?_TP_SCAN?RA8876
            CODE    B2DFH     00D7H     UNIT         ?PR?DMA_DEMO?RA8876
            CODE    B3B6H     00CBH     UNIT         ?PR?_SHOW_PICTURE1?RA8876
            CODE    B481H     00C8H     UNIT         ?PR?_LCD_DISPLAYSTRING?RA8876
            CODE    B549H     00C6H     UNIT         ?PR?MAIN?RA8876
            CODE    B60FH     00BBH     UNIT         ?PR?_SHOW_PICTURE?RA8876
            CODE    B6CAH     00B0H     UNIT         ?PR?_SDWRITEBLOCK?RA8876
            CODE    B77AH     00ACH     UNIT         ?PR?SQRT?SQRT
            CODE    B826H     00A2H     UNIT         ?PR?GRAPHIC_CURSOR_INITIAL?RA8876
            CODE    B8C8H     0096H     UNIT         ?PR?RA8876_INITIAL?RA8876
            CODE    B95EH     008CH     UNIT         ?C_C51STARTUP
            CODE    B9EAH     008BH     UNIT         ?PR?_SDREADBLOCK?RA8876
            CODE    BA75H     0084H     UNIT         ?PR?_LCD_HORIZONTALWIDTH_VERTICALHEIGHT?RA8876
            CODE    BAF9H     0078H     UNIT         ?PR?_LCD_CLEAR?RA8876
            CODE    BB71H     0071H     UNIT         ?PR?_SFI_DMA_SOURCE_START_ADDRESS?RA8876
            CODE    BBE2H     006BH     UNIT         ?PR?SDINIT?RA8876
            CODE    BC4DH     0069H     UNIT         ?PR?_CANVAS_IMAGE_START_ADDRESS?RA8876
            CODE    BCB6H     0069H     UNIT         ?PR?_LINE_END_XY?RA8876
            CODE    BD1FH     0069H     UNIT         ?PR?_SFI_DMA_DESTINATION_START_ADDRESS?RA8876
            CODE    BD88H     0069H     UNIT         ?PR?_SFI_DMA_TRANSFER_NUMBER?RA8876
            CODE    BDF1H     0069H     UNIT         ?PR?_CGRAM_START_ADDRESS?RA8876
            CODE    BE5AH     0064H     UNIT         ?PR?_MAIN_IMAGE_START_ADDRESS?RA8876
            CODE    BEBEH     0064H     UNIT         ?PR?_ACTIVE_WINDOW_WH?RA8876
            CODE    BF22H     0061H     UNIT         ?PR?_PIP_IMAGE_START_ADDRESS?RA8876
            CODE    BF83H     0061H     UNIT         ?PR?_BTE_S0_MEMORY_START_ADDRESS?RA8876
BL51 BANKED LINKER/LOCATER V6.22                                                      08/26/2015  16:38:21  PAGE 3


            CODE    BFE4H     0061H     UNIT         ?PR?_BTE_S1_MEMORY_START_ADDRESS?RA8876
            CODE    C045H     0061H     UNIT         ?PR?_BTE_DESTINATION_MEMORY_START_ADDRESS?RA8876
            CODE    C0A6H     005CH     UNIT         ?PR?_GOTO_LINEAR_ADDR?RA8876
            CODE    C102H     0052H     UNIT         ?PR?LOAD_DROW_DIALOG?RA8876
            CODE    C154H     0050H     UNIT         ?PR?_LCD_CMDWRITE?RA8876
            CODE    C1A4H     0050H     UNIT         ?PR?MONO_DEMO?RA8876
            CODE    C1F4H     004FH     UNIT         ?PR?START_TRIANGLE?RA8876
            CODE    C243H     004FH     UNIT         ?PR?_TP_READ_XY?RA8876
            CODE    C292H     004EH     UNIT         ?PR?_FOREGROUND_COLOR_16M?RA8876
            CODE    C2E0H     004EH     UNIT         ?PR?_BACKGROUND_COLOR_16M?RA8876
            CODE    C32EH     004DH     UNIT         ?PR?RAND?RAND
            CODE    C37BH     004CH     UNIT         ?PR?_LCD_HORIZONTAL_NON_DISPLAY?RA8876
            CODE    C3C7H     0045H     UNIT         ?PR?_PIP_WINDOW_IMAGE_START_XY?RA8876
            CODE    C40CH     0045H     UNIT         ?PR?START_CIRCLE_SQUARE?RA8876
            CODE    C451H     0045H     UNIT         ?PR?_BACKGROUND_COLOR_65K?RA8876
            CODE    C496H     0043H     UNIT         ?PR?_TP_READ_AD?RA8876
            CODE    C4D9H     0041H     UNIT         ?PR?_MAIN_WINDOW_START_XY?RA8876
            CODE    C51AH     0041H     UNIT         ?PR?_BTE_S0_WINDOW_START_XY?RA8876
            CODE    C55BH     0041H     UNIT         ?PR?_SFI_DMA_DESTINATION_UPPER_LEFT_CORNER?RA8876
            CODE    C59CH     0040H     UNIT         ?PR?_CIRCLE_CENTER_XY?RA8876
            CODE    C5DCH     003EH     UNIT         ?PR?_FOREGROUND_COLOR_65K?RA8876
            CODE    C61AH     003BH     UNIT         ?PR?_DELAY_MS?RA8876
            CODE    C655H     003AH     UNIT         ?PR?LCD_STATUSREAD?RA8876
            CODE    C68FH     003AH     UNIT         ?PR?START_SQUARE?RA8876
            CODE    C6C9H     003AH     UNIT         ?PR?_S1_CONSTANT_COLOR_65K?RA8876
            CODE    C703H     0039H     UNIT         ?PR?_LCD_DATAWRITE?RA8876
            CODE    C73CH     0039H     UNIT         ?PR?LCD_DATAREAD?RA8876
            CODE    C775H     0039H     UNIT         ?PR?_BTE_DESTINATION_IMAGE_WIDTH?RA8876
            CODE    C7AEH     0038H     UNIT         ?PR?RA8876_SDRAM_INITAIL?RA8876
            CODE    C7E6H     0037H     UNIT         ?PR?SELECT_PIP2_PARAMETER?RA8876
            CODE    C81DH     0037H     UNIT         ?PR?_GOTO_PIXEL_XY?RA8876
            CODE    C854H     0037H     UNIT         ?PR?_BTE_WINDOW_SIZE?RA8876
            CODE    C88BH     0036H     UNIT         ?PR?_ACTIVE_WINDOW_XY?RA8876
            CODE    C8C1H     0036H     UNIT         ?PR?_SFI_DMA_SOURCE_WIDTH?RA8876
            CODE    C8F7H     0035H     UNIT         ?PR?START_LINE?RA8876
            CODE    C92CH     0035H     UNIT         ?PR?_SHOW_STRING?RA8876
            CODE    C961H     0032H     UNIT         ?PR?_LCD_SETCURSOR?RA8876
            CODE    C993H     0032H     UNIT         ?PR?_TRIANGLE_POINT2_XY?RA8876
            CODE    C9C5H     0032H     UNIT         ?PR?_TRIANGLE_POINT3_XY?RA8876
            CODE    C9F7H     0032H     UNIT         ?PR?_SQUARE_END_XY?RA8876
            CODE    CA29H     0032H     UNIT         ?PR?_ELLIPSE_CENTER_XY?RA8876
            CODE    CA5BH     0032H     UNIT         ?PR?_ELLIPSE_RADIUS_RXRY?RA8876
            CODE    CA8DH     0032H     UNIT         ?PR?_CIRCLE_SQUARE_RADIUS_RXRY?RA8876
            CODE    CABFH     0032H     UNIT         ?PR?_SFI_DMA_TRANSFER_WIDTH_HEIGHT?RA8876
            CODE    CAF1H     0032H     UNIT         ?PR?CGROM_SELECT_INTERNAL_CGROM?RA8876
            CODE    CB23H     0031H     UNIT         ?PR?_LCD_HSYNC_START_POSITION?RA8876
            CODE    CB54H     0031H     UNIT         ?PR?_LCD_HSYNC_PULSE_WIDTH?RA8876
            CODE    CB85H     0031H     UNIT         ?PR?_GRAPHIC_CURSOR_XY?RA8876
            CODE    CBB6H     0031H     UNIT         ?PR?_GOTO_TEXT_XY?RA8876
            CODE    CBE7H     0030H     UNIT         ?PR?_CIRCLE_RADIUS_R?RA8876
            CODE    CC17H     002FH     UNIT         ?PR?START_SQUARE_FILL?RA8876
            CODE    CC46H     002FH     UNIT         ?PR?_BTE_S1_WINDOW_START_XY?RA8876
            CODE    CC75H     002FH     UNIT         ?PR?_LCD_DRAWPOINT?RA8876
            CODE    CCA4H     002EH     UNIT         ?PR?_BTE_ROP_CODE?RA8876
            CODE    CCD2H     002EH     UNIT         ?PR?_BTE_DESTINATION_WINDOW_START_XY?RA8876
            CODE    CD00H     002DH     UNIT         ?PR?_S1_CONSTANT_COLOR_256?RA8876
            CODE    CD2DH     002DH     UNIT         ?PR?_FOREGROUND_COLOR_256?RA8876
BL51 BANKED LINKER/LOCATER V6.22                                                      08/26/2015  16:38:21  PAGE 4


            CODE    CD5AH     002DH     UNIT         ?PR?_BACKGROUND_COLOR_256?RA8876
            CODE    CD87H     002CH     UNIT         ?PR?_S1_CONSTANT_COLOR_16M?RA8876
            CODE    CDB3H     002BH     UNIT         ?PR?_FAST_CLEAR?RA8876
            CODE    CDDEH     002AH     UNIT         ?PR?_PIP_DISPLAY_START_XY?RA8876
            CODE    CE08H     002AH     UNIT         ?PR?_PIP_WINDOW_WIDTH_HEIGHT?RA8876
            CODE    CE32H     002AH     UNIT         ?PR?START_SFI_DMA?RA8876
            CODE    CE5CH     0027H     UNIT         ?PR?_SDCOMMAND?RA8876
            CODE    CE83H     0023H     UNIT         ?PR?_LCD_SETPOINT?RA8876
            CODE    CEA6H     0023H     UNIT         ?PR?_MY_ABS?RA8876
            CODE    CEC9H     0022H     UNIT         ?PR?_FOREGROUND_RGB?RA8876
            CODE    CEEBH     0022H     UNIT         ?PR?_BACKGROUND_RGB?RA8876
            CODE    CF0DH     0020H     UNIT         ?PR?_DELAY100MS?RA8876
            CODE    CF2DH     0020H     UNIT         ?PR?FONT_SELECT_12X24_24X24?RA8876
            CODE    CF4DH     001FH     UNIT         ?PR?_BTE_S1_IMAGE_WIDTH?RA8876
            CODE    CF6CH     001EH     UNIT         ?PR?RA8876_SW_RESET?RA8876
            CODE    CF8AH     001EH     UNIT         ?PR?_TP_WRITE_BYTE?RA8876
            CODE    CFA8H     001DH     UNIT         ?PR?START_CIRCLE_OR_ELLIPSE?RA8876
            CODE    CFC5H     001CH     UNIT         ?PR?_DELAY10MS?RA8876
            CODE    CFE1H     001CH     UNIT         ?PR?_LINE_START_XY?RA8876
            CODE    CFFDH     001AH     UNIT         ?PR?NEXTSTEP?RA8876
            CODE    D017H     001AH     UNIT         ?PR?SELECT_GRAPHIC_CURSOR_2?RA8876
            CODE    D031H     001AH     UNIT         ?PR?_TEXT_CURSOR_H_V?RA8876
            CODE    D04BH     001AH     UNIT         ?PR?_SET_TIMER0_COMPARE_BUFFER?RA8876
            CODE    D065H     001AH     UNIT         ?PR?_SET_TIMER0_COUNT_BUFFER?RA8876
            CODE    D07FH     001AH     UNIT         ?PR?_SET_TIMER1_COMPARE_BUFFER?RA8876
            CODE    D099H     001AH     UNIT         ?PR?_SET_TIMER1_COUNT_BUFFER?RA8876
            CODE    D0B3H     001AH     UNIT         ?PR?BTE_DESTINATION_COLOR_16BPP?RA8876
            CODE    D0CDH     001AH     UNIT         ?PR?_RA8876_I2CM_CLOCK_PRESCALE?RA8876
            CODE    D0E7H     001AH     UNIT         ?PR?_SDWRITE?RA8876
            CODE    D101H     001AH     UNIT         ?PR?SDRESPONSE?RA8876
            CODE    D11BH     0018H     UNIT         ?PR?_LCD_VERTICAL_NON_DISPLAY?RA8876
            CODE    D133H     0018H     UNIT         ?PR?_SPI_MASTER_FIFO_DATA_PUT?RA8876
            CODE    D14BH     0018H     UNIT         ?PR?_KEY_SCAN_FREG?RA8876
            CODE    D163H     0016H     UNIT         ?PR?ENABLE_PLL?RA8876
            CODE    D179H     0016H     UNIT         ?PR?POWER_SAVING_STANDBY_MODE?RA8876
            CODE    D18FH     0016H     UNIT         ?PR?TEXT_CURSOR_INITIAL?RA8876
            CODE    D1A5H     0015H     UNIT         ?PR?_SET_PWM_PRESCALER_1_TO_256?RA8876
            CODE    D1BAH     0015H     UNIT         ?PR?BTE_S1_COLOR_8BPP?RA8876
            CODE    D1CFH     0015H     UNIT         ?PR?BTE_S1_COLOR_16BPP?RA8876
            CODE    D1E4H     0015H     UNIT         ?PR?BTE_S1_COLOR_24BPP?RA8876
            CODE    D1F9H     0015H     UNIT         ?PR?BTE_S1_COLOR_CONSTANT?RA8876
            CODE    D20EH     0015H     UNIT         ?PR?BTE_S1_COLOR_8BIT_ALPHA?RA8876
            CODE    D223H     0015H     UNIT         ?PR?BTE_S1_COLOR_16BIT_ALPHA?RA8876
            CODE    D238H     0015H     UNIT         ?PR?GTFONT_SELECT_GT21L16TW_GT21H16T1W?RA8876
            CODE    D24DH     0015H     UNIT         ?PR?GTFONT_SELECT_GT23L16U2W?RA8876
            CODE    D262H     0015H     UNIT         ?PR?GTFONT_SELECT_GT23L24T3Y_GT23H24T3Y?RA8876
            CODE    D277H     0015H     UNIT         ?PR?GTFONT_SELECT_GT23L24M1Z?RA8876
            CODE    D28CH     0015H     UNIT         ?PR?GTFONT_SELECT_GT23L32S4W_GT23H32S4W?RA8876
            CODE    D2A1H     0015H     UNIT         ?PR?GTFONT_SELECT_GT20L24F6Y?RA8876
            CODE    D2B6H     0015H     UNIT         ?PR?GTFONT_SELECT_GT21L24S1W?RA8876
            CODE    D2CBH     0015H     UNIT         ?PR?GTFONT_SELECT_GT22L16A1Y?RA8876
            CODE    D2E0H     0014H     UNIT         ?PR?_BTE_OPERATION_CODE?RA8876
            CODE    D2F4H     0014H     UNIT         ?PR?_LONG_KEY_TIMING_ADJUSTMENT?RA8876
            CODE    D308H     0013H     UNIT         ?PR?TFT_24BIT?RA8876
            CODE    D31BH     0013H     UNIT         ?PR?TFT_18BIT?RA8876
            CODE    D32EH     0013H     UNIT         ?PR?TFT_16BIT?RA8876
            CODE    D341H     0013H     UNIT         ?PR?TFT_LVDS?RA8876
BL51 BANKED LINKER/LOCATER V6.22                                                      08/26/2015  16:38:21  PAGE 5


            CODE    D354H     0013H     UNIT         ?PR?RGB_8B_8BPP?RA8876
            CODE    D367H     0013H     UNIT         ?PR?RGB_8B_16BPP?RA8876
            CODE    D37AH     0013H     UNIT         ?PR?RGB_8B_24BPP?RA8876
            CODE    D38DH     0013H     UNIT         ?PR?RGB_16B_8BPP?RA8876
            CODE    D3A0H     0013H     UNIT         ?PR?RGB_16B_16BPP?RA8876
            CODE    D3B3H     0013H     UNIT         ?PR?RGB_16B_24BPP_MODE1?RA8876
            CODE    D3C6H     0013H     UNIT         ?PR?RGB_16B_24BPP_MODE2?RA8876
            CODE    D3D9H     0013H     UNIT         ?PR?MEMREAD_LEFT_RIGHT_TOP_DOWN?RA8876
            CODE    D3ECH     0013H     UNIT         ?PR?MEMREAD_RIGHT_LEFT_TOP_DOWN?RA8876
            CODE    D3FFH     0013H     UNIT         ?PR?MEMREAD_TOP_DOWN_LEFT_RIGHT?RA8876
            CODE    D412H     0013H     UNIT         ?PR?MEMREAD_DOWN_TOP_LEFT_RIGHT?RA8876
            CODE    D425H     0013H     UNIT         ?PR?MEMWRITE_LEFT_RIGHT_TOP_DOWN?RA8876
            CODE    D438H     0013H     UNIT         ?PR?MEMWRITE_RIGHT_LEFT_TOP_DOWN?RA8876
            CODE    D44BH     0013H     UNIT         ?PR?MEMWRITE_TOP_DOWN_LEFT_RIGHT?RA8876
            CODE    D45EH     0013H     UNIT         ?PR?MEMWRITE_DOWN_TOP_LEFT_RIGHT?RA8876
            CODE    D471H     0013H     UNIT         ?PR?EXTINTERRUPT_INPUT_LOW_LEVEL_TRIGGER?RA8876
            CODE    D484H     0013H     UNIT         ?PR?EXTINTERRUPT_INPUT_HIGH_LEVEL_TRIGGER?RA8876
            CODE    D497H     0013H     UNIT         ?PR?EXTINTERRUPT_INPUT_FALLING_EDGE_TRIGGER?RA8876
            CODE    D4AAH     0013H     UNIT         ?PR?EXTINTERRUPT_INPUT_RISING_EDGE_TRIGGER?RA8876
            CODE    D4BDH     0013H     UNIT         ?PR?MEMORY_SELECT_SDRAM?RA8876
            CODE    D4D0H     0013H     UNIT         ?PR?MEMORY_SELECT_GRAPHIC_CURSOR_RAM?RA8876
            CODE    D4E3H     0013H     UNIT         ?PR?MEMORY_SELECT_COLOR_PALETTE_RAM?RA8876
            CODE    D4F6H     0013H     UNIT         ?PR?SELECT_MAIN_WINDOW_8BPP?RA8876
            CODE    D509H     0013H     UNIT         ?PR?SELECT_MAIN_WINDOW_16BPP?RA8876
            CODE    D51CH     0013H     UNIT         ?PR?SELECT_PIP2_WINDOW_8BPP?RA8876
            CODE    D52FH     0013H     UNIT         ?PR?SELECT_PIP2_WINDOW_16BPP?RA8876
            CODE    D542H     0013H     UNIT         ?PR?SELECT_PIP2_WINDOW_24BPP?RA8876
            CODE    D555H     0013H     UNIT         ?PR?SELECT_PIP1_WINDOW_8BPP?RA8876
            CODE    D568H     0013H     UNIT         ?PR?SELECT_PIP1_WINDOW_16BPP?RA8876
            CODE    D57BH     0013H     UNIT         ?PR?SELECT_PIP1_WINDOW_24BPP?RA8876
            CODE    D58EH     0013H     UNIT         ?PR?SELECT_GRAPHIC_CURSOR_1?RA8876
            CODE    D5A1H     0013H     UNIT         ?PR?SELECT_GRAPHIC_CURSOR_3?RA8876
            CODE    D5B4H     0013H     UNIT         ?PR?SELECT_GRAPHIC_CURSOR_4?RA8876
            CODE    D5C7H     0013H     UNIT         ?PR?MEMORY_8BPP_MODE?RA8876
            CODE    D5DAH     0013H     UNIT         ?PR?MEMORY_16BPP_MODE?RA8876
            CODE    D5EDH     0013H     UNIT         ?PR?MEMORY_24BPP_MODE?RA8876
            CODE    D600H     0013H     UNIT         ?PR?SELECT_PWM1_CLOCK_DIVIDED_BY_1?RA8876
            CODE    D613H     0013H     UNIT         ?PR?SELECT_PWM1_CLOCK_DIVIDED_BY_2?RA8876
            CODE    D626H     0013H     UNIT         ?PR?SELECT_PWM1_CLOCK_DIVIDED_BY_4?RA8876
            CODE    D639H     0013H     UNIT         ?PR?SELECT_PWM1_CLOCK_DIVIDED_BY_8?RA8876
            CODE    D64CH     0013H     UNIT         ?PR?SELECT_PWM0_CLOCK_DIVIDED_BY_1?RA8876
            CODE    D65FH     0013H     UNIT         ?PR?SELECT_PWM0_CLOCK_DIVIDED_BY_2?RA8876
            CODE    D672H     0013H     UNIT         ?PR?SELECT_PWM0_CLOCK_DIVIDED_BY_4?RA8876
            CODE    D685H     0013H     UNIT         ?PR?SELECT_PWM0_CLOCK_DIVIDED_BY_8?RA8876
            CODE    D698H     0013H     UNIT         ?PR?SELECT_PWM1?RA8876
            CODE    D6ABH     0013H     UNIT         ?PR?SELECT_PWM1_IS_OSC_CLOCK?RA8876
            CODE    D6BEH     0013H     UNIT         ?PR?SELECT_PWM0?RA8876
            CODE    D6D1H     0013H     UNIT         ?PR?SELECT_PWM0_IS_CORE_CLOCK?RA8876
            CODE    D6E4H     0013H     UNIT         ?PR?BTE_S0_COLOR_8BPP?RA8876
            CODE    D6F7H     0013H     UNIT         ?PR?BTE_S0_COLOR_16BPP?RA8876
            CODE    D70AH     0013H     UNIT         ?PR?BTE_DESTINATION_COLOR_8BPP?RA8876
            CODE    D71DH     0013H     UNIT         ?PR?SELECT_SFI_8_DUMMYREAD?RA8876
            CODE    D730H     0013H     UNIT         ?PR?SELECT_SFI_16_DUMMYREAD?RA8876
            CODE    D743H     0013H     UNIT         ?PR?SELECT_SFI_DUAL_MODE0?RA8876
            CODE    D756H     0013H     UNIT         ?PR?FONT_SELECT_USERDEFINE_MODE?RA8876
            CODE    D769H     0013H     UNIT         ?PR?CGROM_SELECT_GENITOP_FONTROM?RA8876
            CODE    D77CH     0013H     UNIT         ?PR?FONT_SELECT_8X16_16X16?RA8876
BL51 BANKED LINKER/LOCATER V6.22                                                      08/26/2015  16:38:21  PAGE 6


            CODE    D78FH     0013H     UNIT         ?PR?FONT_SELECT_16X32_32X32?RA8876
            CODE    D7A2H     0013H     UNIT         ?PR?INTERNAL_CGROM_SELECT_ISOIEC8859_1?RA8876
            CODE    D7B5H     0013H     UNIT         ?PR?INTERNAL_CGROM_SELECT_ISOIEC8859_2?RA8876
            CODE    D7C8H     0013H     UNIT         ?PR?INTERNAL_CGROM_SELECT_ISOIEC8859_3?RA8876
            CODE    D7DBH     0013H     UNIT         ?PR?INTERNAL_CGROM_SELECT_ISOIEC8859_4?RA8876
            CODE    D7EEH     0013H     UNIT         ?PR?FONT_WIDTH_X1?RA8876
            CODE    D801H     0013H     UNIT         ?PR?FONT_WIDTH_X2?RA8876
            CODE    D814H     0013H     UNIT         ?PR?FONT_WIDTH_X3?RA8876
            CODE    D827H     0013H     UNIT         ?PR?FONT_WIDTH_X4?RA8876
            CODE    D83AH     0013H     UNIT         ?PR?FONT_HEIGHT_X1?RA8876
            CODE    D84DH     0013H     UNIT         ?PR?FONT_HEIGHT_X2?RA8876
            CODE    D860H     0013H     UNIT         ?PR?FONT_HEIGHT_X3?RA8876
            CODE    D873H     0013H     UNIT         ?PR?FONT_HEIGHT_X4?RA8876
            CODE    D886H     0013H     UNIT         ?PR?SDREAD?RA8876
            CODE    D899H     0012H     UNIT         ?PR?RA8876_HW_RESET?RA8876
            CODE    D8ABH     0012H     UNIT         ?PR?_MAIN_IMAGE_WIDTH?RA8876
            CODE    D8BDH     0012H     UNIT         ?PR?_PIP_IMAGE_WIDTH?RA8876
            CODE    D8CFH     0012H     UNIT         ?PR?_CANVAS_IMAGE_WIDTH?RA8876
            CODE    D8E1H     0012H     UNIT         ?PR?_BTE_S0_IMAGE_WIDTH?RA8876
            CODE    D8F3H     0012H     UNIT         ?PR?TX_FIFO_EMPTY_FLAG?RA8876
            CODE    D905H     0012H     UNIT         ?PR?TX_FIFO_FULL_FLAG?RA8876
            CODE    D917H     0012H     UNIT         ?PR?RX_FIFO_EMPTY_FLAG?RA8876
            CODE    D929H     0012H     UNIT         ?PR?RX_FIFO_FULL_FLAG?RA8876
            CODE    D93BH     0012H     UNIT         ?PR?OVFI_FLAG?RA8876
            CODE    D94DH     0012H     UNIT         ?PR?EMTI_FLAG?RA8876
            CODE    D95FH     0012H     UNIT         ?PR?RA8876_I2CM_CHECK_SLAVE_ACK?RA8876
            CODE    D971H     0012H     UNIT         ?PR?RA8876_I2CM_BUS_BUSY?RA8876
            CODE    D983H     0012H     UNIT         ?PR?RA8876_I2CM_TRANSMIT_PROGRESS?RA8876
            CODE    D995H     0011H     UNIT         ?PR?RA8876_SLEEP?RA8876
            CODE    D9A6H     0011H     UNIT         ?PR?RA8876_WAKEUP?RA8876
            CODE    D9B7H     0011H     UNIT         ?PR?KEY_SCAN_ENABLE?RA8876
            CODE    D9C8H     0011H     UNIT         ?PR?KEY_SCAN_DISABLE?RA8876
            CODE    D9D9H     0011H     UNIT         ?PR?RA8876_I2CM_ENABLE?RA8876
            CODE    D9EAH     0011H     UNIT         ?PR?RA8876_I2CM_DISABLE?RA8876
            CODE    D9FBH     0011H     UNIT         ?PR?ENABLE_SFLASH_SPI?RA8876
            CODE    DA0CH     0011H     UNIT         ?PR?DISABLE_SFLASH_SPI?RA8876
            CODE    DA1DH     0011H     UNIT         ?PR?HOST_BUS_8BIT?RA8876
            CODE    DA2EH     0011H     UNIT         ?PR?HOST_BUS_16BIT?RA8876
            CODE    DA3FH     0011H     UNIT         ?PR?INTERRUPT_ACTIVE_LOW?RA8876
            CODE    DA50H     0011H     UNIT         ?PR?INTERRUPT_ACTIVE_HIGH?RA8876
            CODE    DA61H     0011H     UNIT         ?PR?EXTINTERRUPT_DEBOUNCE?RA8876
            CODE    DA72H     0011H     UNIT         ?PR?EXTINTERRUPT_NODEBOUNCE?RA8876
            CODE    DA83H     0011H     UNIT         ?PR?LVDS_FORMAT1?RA8876
            CODE    DA94H     0011H     UNIT         ?PR?LVDS_FORMAT2?RA8876
            CODE    DAA5H     0011H     UNIT         ?PR?GRAPHIC_MODE?RA8876
            CODE    DAB6H     0011H     UNIT         ?PR?TEXT_MODE?RA8876
            CODE    DAC7H     0011H     UNIT         ?PR?ENABLE_RESUME_INTERRUPT?RA8876
            CODE    DAD8H     0011H     UNIT         ?PR?DISABLE_RESUME_INTERRUPT?RA8876
            CODE    DAE9H     0011H     UNIT         ?PR?ENABLE_EXTINTERRUPT_INPUT?RA8876
            CODE    DAFAH     0011H     UNIT         ?PR?DISABLE_EXTINTERRUPT_INPUT?RA8876
            CODE    DB0BH     0011H     UNIT         ?PR?ENABLE_I2CM_INTERRUPT?RA8876
            CODE    DB1CH     0011H     UNIT         ?PR?DISABLE_I2CM_INTERRUPT?RA8876
            CODE    DB2DH     0011H     UNIT         ?PR?ENABLE_VSYNC_INTERRUPT?RA8876
            CODE    DB3EH     0011H     UNIT         ?PR?DISABLE_VSYNC_INTERRUPT?RA8876
            CODE    DB4FH     0011H     UNIT         ?PR?ENABLE_KEYSCAN_INTERRUPT?RA8876
            CODE    DB60H     0011H     UNIT         ?PR?DISABLE_KEYSCAN_INTERRUPT?RA8876
            CODE    DB71H     0011H     UNIT         ?PR?ENABLE_DMA_DRAW_BTE_INTERRUPT?RA8876
BL51 BANKED LINKER/LOCATER V6.22                                                      08/26/2015  16:38:21  PAGE 7


            CODE    DB82H     0011H     UNIT         ?PR?DISABLE_DMA_DRAW_BTE_INTERRUPT?RA8876
            CODE    DB93H     0011H     UNIT         ?PR?ENABLE_PWM1_INTERRUPT?RA8876
            CODE    DBA4H     0011H     UNIT         ?PR?DISABLE_PWM1_INTERRUPT?RA8876
            CODE    DBB5H     0011H     UNIT         ?PR?ENABLE_PWM0_INTERRUPT?RA8876
            CODE    DBC6H     0011H     UNIT         ?PR?DISABLE_PWM0_INTERRUPT?RA8876
            CODE    DBD7H     0011H     UNIT         ?PR?CLEAR_RESUME_INTERRUPT_FLAG?RA8876
            CODE    DBE8H     0011H     UNIT         ?PR?CLEAR_EXTINTERRUPT_INPUT_FLAG?RA8876
            CODE    DBF9H     0011H     UNIT         ?PR?CLEAR_I2CM_INTERRUPT_FLAG?RA8876
            CODE    DC0AH     0011H     UNIT         ?PR?CLEAR_VSYNC_INTERRUPT_FLAG?RA8876
            CODE    DC1BH     0011H     UNIT         ?PR?CLEAR_KEYSCAN_INTERRUPT_FLAG?RA8876
            CODE    DC2CH     0011H     UNIT         ?PR?CLEAR_DMA_DRAW_BTE_INTERRUPT_FLAG?RA8876
            CODE    DC3DH     0011H     UNIT         ?PR?CLEAR_PWM1_INTERRUPT_FLAG?RA8876
            CODE    DC4EH     0011H     UNIT         ?PR?CLEAR_PWM0_INTERRUPT_FLAG?RA8876
            CODE    DC5FH     0011H     UNIT         ?PR?MASK_RESUME_INTERRUPT_FLAG?RA8876
            CODE    DC70H     0011H     UNIT         ?PR?MASK_EXTINTERRUPT_INPUT_FLAG?RA8876
            CODE    DC81H     0011H     UNIT         ?PR?MASK_I2CM_INTERRUPT_FLAG?RA8876
            CODE    DC92H     0011H     UNIT         ?PR?MASK_VSYNC_INTERRUPT_FLAG?RA8876
            CODE    DCA3H     0011H     UNIT         ?PR?MASK_KEYSCAN_INTERRUPT_FLAG?RA8876
            CODE    DCB4H     0011H     UNIT         ?PR?MASK_DMA_DRAW_BTE_INTERRUPT_FLAG?RA8876
            CODE    DCC5H     0011H     UNIT         ?PR?MASK_PWM1_INTERRUPT_FLAG?RA8876
            CODE    DCD6H     0011H     UNIT         ?PR?MASK_PWM0_INTERRUPT_FLAG?RA8876
            CODE    DCE7H     0011H     UNIT         ?PR?ENABLE_RESUME_INTERRUPT_FLAG?RA8876
            CODE    DCF8H     0011H     UNIT         ?PR?ENABLE_EXTINTERRUPT_INPUR_FLAG?RA8876
            CODE    DD09H     0011H     UNIT         ?PR?ENABLE_I2CM_INTERRUPT_FLAG?RA8876
            CODE    DD1AH     0011H     UNIT         ?PR?ENABLE_VSYNC_INTERRUPT_FLAG?RA8876
            CODE    DD2BH     0011H     UNIT         ?PR?ENABLE_KEYSCAN_INTERRUPT_FLAG?RA8876
            CODE    DD3CH     0011H     UNIT         ?PR?ENABLE_DMA_DRAW_BTE_INTERRUPT_FLAG?RA8876
            CODE    DD4DH     0011H     UNIT         ?PR?ENABLE_PWM1_INTERRUPT_FLAG?RA8876
            CODE    DD5EH     0011H     UNIT         ?PR?ENABLE_PWM0_INTERRUPT_FLAG?RA8876
            CODE    DD6FH     0011H     UNIT         ?PR?ENABLE_GPIOF_PULLUP?RA8876
            CODE    DD80H     0011H     UNIT         ?PR?ENABLE_GPIOE_PULLUP?RA8876
            CODE    DD91H     0011H     UNIT         ?PR?ENABLE_GPIOD_PULLUP?RA8876
            CODE    DDA2H     0011H     UNIT         ?PR?ENABLE_GPIOC_PULLUP?RA8876
            CODE    DDB3H     0011H     UNIT         ?PR?ENABLE_XDB15_8_PULLUP?RA8876
            CODE    DDC4H     0011H     UNIT         ?PR?ENABLE_XDB7_0_PULLUP?RA8876
            CODE    DDD5H     0011H     UNIT         ?PR?DISABLE_GPIOF_PULLUP?RA8876
            CODE    DDE6H     0011H     UNIT         ?PR?DISABLE_GPIOE_PULLUP?RA8876
            CODE    DDF7H     0011H     UNIT         ?PR?DISABLE_GPIOD_PULLUP?RA8876
            CODE    DE08H     0011H     UNIT         ?PR?DISABLE_GPIOC_PULLUP?RA8876
            CODE    DE19H     0011H     UNIT         ?PR?DISABLE_XDB15_8_PULLUP?RA8876
            CODE    DE2AH     0011H     UNIT         ?PR?DISABLE_XDB7_0_PULLUP?RA8876
            CODE    DE3BH     0011H     UNIT         ?PR?XPDAT18_SET_GPIO_D7?RA8876
            CODE    DE4CH     0011H     UNIT         ?PR?XPDAT18_SET_KOUT4?RA8876
            CODE    DE5DH     0011H     UNIT         ?PR?XPDAT17_SET_GPIO_D5?RA8876
            CODE    DE6EH     0011H     UNIT         ?PR?XPDAT17_SET_KOUT2?RA8876
            CODE    DE7FH     0011H     UNIT         ?PR?XPDAT16_SET_GPIO_D4?RA8876
            CODE    DE90H     0011H     UNIT         ?PR?XPDAT16_SET_KOUT1?RA8876
            CODE    DEA1H     0011H     UNIT         ?PR?XPDAT9_SET_GPIO_D3?RA8876
            CODE    DEB2H     0011H     UNIT         ?PR?XPDAT9_SET_KOUT3?RA8876
            CODE    DEC3H     0011H     UNIT         ?PR?XPDAT8_SET_GPIO_D2?RA8876
            CODE    DED4H     0011H     UNIT         ?PR?XPDAT8_SET_KIN3?RA8876
            CODE    DEE5H     0011H     UNIT         ?PR?XPDAT2_SET_GPIO_D6?RA8876
            CODE    DEF6H     0011H     UNIT         ?PR?XPDAT2_SET_KIN4?RA8876
            CODE    DF07H     0011H     UNIT         ?PR?XPDAT1_SET_GPIO_D1?RA8876
            CODE    DF18H     0011H     UNIT         ?PR?XPDAT1_SET_KIN2?RA8876
            CODE    DF29H     0011H     UNIT         ?PR?XPDAT0_SET_GPIO_D0?RA8876
            CODE    DF3AH     0011H     UNIT         ?PR?XPDAT0_SET_KIN1?RA8876
BL51 BANKED LINKER/LOCATER V6.22                                                      08/26/2015  16:38:21  PAGE 8


            CODE    DF4BH     0011H     UNIT         ?PR?ENABLE_PIP1?RA8876
            CODE    DF5CH     0011H     UNIT         ?PR?DISABLE_PIP1?RA8876
            CODE    DF6DH     0011H     UNIT         ?PR?ENABLE_PIP2?RA8876
            CODE    DF7EH     0011H     UNIT         ?PR?DISABLE_PIP2?RA8876
            CODE    DF8FH     0011H     UNIT         ?PR?SELECT_PIP1_PARAMETER?RA8876
            CODE    DFA0H     0011H     UNIT         ?PR?SELECT_MAIN_WINDOW_24BPP?RA8876
            CODE    DFB1H     0011H     UNIT         ?PR?HSYNC_LOW_ACTIVE?RA8876
            CODE    DFC2H     0011H     UNIT         ?PR?HSYNC_HIGH_ACTIVE?RA8876
            CODE    DFD3H     0011H     UNIT         ?PR?VSYNC_LOW_ACTIVE?RA8876
            CODE    DFE4H     0011H     UNIT         ?PR?VSYNC_HIGH_ACTIVE?RA8876
            CODE    DFF5H     0011H     UNIT         ?PR?DE_LOW_ACTIVE?RA8876
            CODE    E006H     0011H     UNIT         ?PR?DE_HIGH_ACTIVE?RA8876
            CODE    E017H     0011H     UNIT         ?PR?IDLE_DE_LOW?RA8876
            CODE    E028H     0011H     UNIT         ?PR?IDLE_DE_HIGH?RA8876
            CODE    E039H     0011H     UNIT         ?PR?IDLE_PCLK_LOW?RA8876
            CODE    E04AH     0011H     UNIT         ?PR?IDLE_PCLK_HIGH?RA8876
            CODE    E05BH     0011H     UNIT         ?PR?IDLE_PDAT_LOW?RA8876
            CODE    E06CH     0011H     UNIT         ?PR?IDLE_PDAT_HIGH?RA8876
            CODE    E07DH     0011H     UNIT         ?PR?IDLE_HSYNC_LOW?RA8876
            CODE    E08EH     0011H     UNIT         ?PR?IDLE_HSYNC_HIGH?RA8876
            CODE    E09FH     0011H     UNIT         ?PR?IDLE_VSYNC_LOW?RA8876
            CODE    E0B0H     0011H     UNIT         ?PR?IDLE_VSYNC_HIGH?RA8876
            CODE    E0C1H     0011H     UNIT         ?PR?ENABLE_GRAPHIC_CURSOR?RA8876
            CODE    E0D2H     0011H     UNIT         ?PR?DISABLE_GRAPHIC_CURSOR?RA8876
            CODE    E0E3H     0011H     UNIT         ?PR?ENABLE_TEXT_CURSOR?RA8876
            CODE    E0F4H     0011H     UNIT         ?PR?DISABLE_TEXT_CURSOR?RA8876
            CODE    E105H     0011H     UNIT         ?PR?ENABLE_TEXT_CURSOR_BLINKING?RA8876
            CODE    E116H     0011H     UNIT         ?PR?DISABLE_TEXT_CURSOR_BLINKING?RA8876
            CODE    E127H     0011H     UNIT         ?PR?SELECT_WRITE_DATA_POSITION?RA8876
            CODE    E138H     0011H     UNIT         ?PR?SELECT_READ_DATA_POSITION?RA8876
            CODE    E149H     0011H     UNIT         ?PR?MEMORY_XY_MODE?RA8876
            CODE    E15AH     0011H     UNIT         ?PR?MEMORY_LINEAR_MODE?RA8876
            CODE    E16BH     0011H     UNIT         ?PR?SELECT_PWM1_IS_ERRORFLAG?RA8876
            CODE    E17CH     0011H     UNIT         ?PR?SELECT_PWM0_IS_GPIO_C7?RA8876
            CODE    E18DH     0011H     UNIT         ?PR?ENABLE_PWM1_INVERTER?RA8876
            CODE    E19EH     0011H     UNIT         ?PR?DISABLE_PWM1_INVERTER?RA8876
            CODE    E1AFH     0011H     UNIT         ?PR?AUTO_RELOAD_PWM1?RA8876
            CODE    E1C0H     0011H     UNIT         ?PR?ONE_SHOT_PWM1?RA8876
            CODE    E1D1H     0011H     UNIT         ?PR?START_PWM1?RA8876
            CODE    E1E2H     0011H     UNIT         ?PR?STOP_PWM1?RA8876
            CODE    E1F3H     0011H     UNIT         ?PR?ENABLE_PWM0_DEAD_ZONE?RA8876
            CODE    E204H     0011H     UNIT         ?PR?DISABLE_PWM0_DEAD_ZONE?RA8876
            CODE    E215H     0011H     UNIT         ?PR?ENABLE_PWM0_INVERTER?RA8876
            CODE    E226H     0011H     UNIT         ?PR?DISABLE_PWM0_INVERTER?RA8876
            CODE    E237H     0011H     UNIT         ?PR?AUTO_RELOAD_PWM0?RA8876
            CODE    E248H     0011H     UNIT         ?PR?ONE_SHOT_PWM0?RA8876
            CODE    E259H     0011H     UNIT         ?PR?START_PWM0?RA8876
            CODE    E26AH     0011H     UNIT         ?PR?STOP_PWM0?RA8876
            CODE    E27BH     0011H     UNIT         ?PR?BTE_ENABLE?RA8876
            CODE    E28CH     0011H     UNIT         ?PR?BTE_DISABLE?RA8876
            CODE    E29DH     0011H     UNIT         ?PR?PATTERN_FORMAT_8X8?RA8876
            CODE    E2AEH     0011H     UNIT         ?PR?PATTERN_FORMAT_16X16?RA8876
            CODE    E2BFH     0011H     UNIT         ?PR?BTE_S0_COLOR_24BPP?RA8876
            CODE    E2D0H     0011H     UNIT         ?PR?BTE_DESTINATION_COLOR_24BPP?RA8876
            CODE    E2E1H     0011H     UNIT         ?PR?SELECT_SFI_0?RA8876
            CODE    E2F2H     0011H     UNIT         ?PR?SELECT_SFI_1?RA8876
            CODE    E303H     0011H     UNIT         ?PR?SELECT_SFI_FONT_MODE?RA8876
BL51 BANKED LINKER/LOCATER V6.22                                                      08/26/2015  16:38:21  PAGE 9


            CODE    E314H     0011H     UNIT         ?PR?SELECT_SFI_DMA_MODE?RA8876
            CODE    E325H     0011H     UNIT         ?PR?SELECT_SFI_24BIT_ADDRESS?RA8876
            CODE    E336H     0011H     UNIT         ?PR?SELECT_SFI_32BIT_ADDRESS?RA8876
            CODE    E347H     0011H     UNIT         ?PR?SELECT_SFI_WAVEFORM_MODE_0?RA8876
            CODE    E358H     0011H     UNIT         ?PR?SELECT_SFI_WAVEFORM_MODE_3?RA8876
            CODE    E369H     0011H     UNIT         ?PR?SELECT_SFI_0_DUMMYREAD?RA8876
            CODE    E37AH     0011H     UNIT         ?PR?SELECT_SFI_24_DUMMYREAD?RA8876
            CODE    E38BH     0011H     UNIT         ?PR?SELECT_SFI_SINGLE_MODE?RA8876
            CODE    E39CH     0011H     UNIT         ?PR?SELECT_SFI_DUAL_MODE1?RA8876
            CODE    E3ADH     0011H     UNIT         ?PR?SPI_MASTER_FIFO_DATA_GET?RA8876
            CODE    E3BEH     0011H     UNIT         ?PR?MASK_SPI_MASTER_INTERRUPT_FLAG?RA8876
            CODE    E3CFH     0011H     UNIT         ?PR?SELECT_NSS_DRIVE_ON_XNSFCS0?RA8876
            CODE    E3E0H     0011H     UNIT         ?PR?SELECT_NSS_DRIVE_ON_XNSFCS1?RA8876
            CODE    E3F1H     0011H     UNIT         ?PR?NSS_INACTIVE?RA8876
            CODE    E402H     0011H     UNIT         ?PR?NSS_ACTIVE?RA8876
            CODE    E413H     0011H     UNIT         ?PR?OVFIRQEN_ENABLE?RA8876
            CODE    E424H     0011H     UNIT         ?PR?EMTIRQEN_ENABLE?RA8876
            CODE    E435H     0011H     UNIT         ?PR?RESET_CPOL?RA8876
            CODE    E446H     0011H     UNIT         ?PR?SET_CPOL?RA8876
            CODE    E457H     0011H     UNIT         ?PR?RESET_CPHA?RA8876
            CODE    E468H     0011H     UNIT         ?PR?SET_CPHA?RA8876
            CODE    E479H     0011H     UNIT         ?PR?CLEAR_OVFI_FLAG?RA8876
            CODE    E48AH     0011H     UNIT         ?PR?CLEAR_EMTI_FLAG?RA8876
            CODE    E49BH     0011H     UNIT         ?PR?ENABLE_FONT_ALIGNMENT?RA8876
            CODE    E4ACH     0011H     UNIT         ?PR?DISABLE_FONT_ALIGNMENT?RA8876
            CODE    E4BDH     0011H     UNIT         ?PR?FONT_BACKGROUND_SELECT_TRANSPARENCY?RA8876
            CODE    E4CEH     0011H     UNIT         ?PR?FONT_BACKGROUND_SELECT_COLOR?RA8876
            CODE    E4DFH     0011H     UNIT         ?PR?FONT_0_DEGREE?RA8876
            CODE    E4F0H     0011H     UNIT         ?PR?FONT_90_DEGREE?RA8876
            CODE    E501H     0011H     UNIT         ?PR?LONG_KEY_ENABLE?RA8876
            CODE    E512H     0011H     UNIT         ?PR?KEY_SCAN_WAKEUP_FUNCTION_ENABLE?RA8876
            CODE    E523H     0010H     UNIT         ?PR?POWER_SAVING_STATUS?RA8876
            CODE    E533H     0010H     UNIT         ?PR?PDATA_SET_GBR?RA8876
            CODE    E543H     0010H     UNIT         ?PR?PDATA_SET_BGR?RA8876
            CODE    E553H     000FH     UNIT         ?PR?_LCD_REGISTERWRITE?RA8876
            CODE    E562H     000FH     UNIT         ?PR?START_TRIANGLE_FILL?RA8876
            CODE    E571H     000FH     UNIT         ?PR?START_CIRCLE_OR_ELLIPSE_FILL?RA8876
            CODE    E580H     000FH     UNIT         ?PR?START_LEFT_DOWN_CURVE?RA8876
            CODE    E58FH     000FH     UNIT         ?PR?START_LEFT_UP_CURVE?RA8876
            CODE    E59EH     000FH     UNIT         ?PR?START_RIGHT_UP_CURVE?RA8876
            CODE    E5ADH     000FH     UNIT         ?PR?START_RIGHT_DOWN_CURVE?RA8876
            CODE    E5BCH     000FH     UNIT         ?PR?START_LEFT_DOWN_CURVE_FILL?RA8876
            CODE    E5CBH     000FH     UNIT         ?PR?START_LEFT_UP_CURVE_FILL?RA8876
            CODE    E5DAH     000FH     UNIT         ?PR?START_RIGHT_UP_CURVE_FILL?RA8876
            CODE    E5E9H     000FH     UNIT         ?PR?START_RIGHT_DOWN_CURVE_FILL?RA8876
            CODE    E5F8H     000FH     UNIT         ?PR?START_CIRCLE_SQUARE_FILL?RA8876
            CODE    E607H     000EH     UNIT         ?PR?_DELAY_US?RA8876
            CODE    E615H     000EH     UNIT         ?PR?CHECK_MEM_WR_FIFO_NOT_FULL?RA8876
            CODE    E623H     000EH     UNIT         ?PR?PDATA_SET_RBG?RA8876
            CODE    E631H     000EH     UNIT         ?PR?PDATA_SET_GRB?RA8876
            CODE    E63FH     000EH     UNIT         ?PR?PDATA_SET_BRG?RA8876
            CODE    E64DH     000EH     UNIT         ?PR?_LCD_VSYNC_START_POSITION?RA8876
            CODE    E65BH     000EH     UNIT         ?PR?_LCD_VSYNC_PULSE_WIDTH?RA8876
            CODE    E669H     000EH     UNIT         ?PR?_BLINKING_TIME_FRAMES?RA8876
            CODE    E677H     000EH     UNIT         ?PR?_SET_GRAPHIC_CURSOR_COLOR_2?RA8876
            CODE    E685H     000EH     UNIT         ?PR?_SET_TIMER0_DEAD_ZONE_LENGTH?RA8876
            CODE    E693H     000EH     UNIT         ?PR?_BTE_ALPHA_BLENDING_EFFECT?RA8876
BL51 BANKED LINKER/LOCATER V6.22                                                      08/26/2015  16:38:21  PAGE 10


            CODE    E6A1H     000EH     UNIT         ?PR?_SPI_CLOCK_PERIOD?RA8876
            CODE    E6AFH     000EH     UNIT         ?PR?_SET_GTFONT_DECODER?RA8876
            CODE    E6BDH     000EH     UNIT         ?PR?_FONT_LINE_DISTANCE?RA8876
            CODE    E6CBH     000EH     UNIT         ?PR?_SET_FONT_TO_FONT_WIDTH?RA8876
            CODE    E6D9H     000EH     UNIT         ?PR?_RA8876_I2CM_TRANSMIT_DATA?RA8876
            CODE    E6E7H     000EH     UNIT         ?PR?_SET_GPIO_A_IN_OUT?RA8876
            CODE    E6F5H     000EH     UNIT         ?PR?_WRITE_GPIO_A_7_0?RA8876
            CODE    E703H     000EH     UNIT         ?PR?_WRITE_GPIO_B_7_4?RA8876
            CODE    E711H     000EH     UNIT         ?PR?_SET_GPIO_C_IN_OUT?RA8876
            CODE    E71FH     000EH     UNIT         ?PR?_WRITE_GPIO_C_7_0?RA8876
            CODE    E72DH     000EH     UNIT         ?PR?_SET_GPIO_D_IN_OUT?RA8876
            CODE    E73BH     000EH     UNIT         ?PR?_WRITE_GPIO_D_7_0?RA8876
            CODE    E749H     000EH     UNIT         ?PR?_SET_GPIO_E_IN_OUT?RA8876
            CODE    E757H     000EH     UNIT         ?PR?_WRITE_GPIO_E_7_0?RA8876
            CODE    E765H     000EH     UNIT         ?PR?_SET_GPIO_F_IN_OUT?RA8876
            CODE    E773H     000EH     UNIT         ?PR?_WRITE_GPIO_F_7_0?RA8876
            CODE    E781H     000DH     UNIT         ?PR?CHECK_BUSY_SFI_DMA?RA8876
            CODE    E78EH     000DH     UNIT         ?PR?RA8876_I2CM_ARBITRATION?RA8876
            CODE    E79BH     000DH     UNIT         ?PR?NUMBERS_OF_KEY_HIT?RA8876
            CODE    E7A8H     000CH     UNIT         ?PR?PCLK_RISING?RA8876
            CODE    E7B4H     000CH     UNIT         ?PR?PCLK_FALLING?RA8876
            CODE    E7C0H     000CH     UNIT         ?PR?DISPLAY_ON?RA8876
            CODE    E7CCH     000CH     UNIT         ?PR?DISPLAY_OFF?RA8876
            CODE    E7D8H     000CH     UNIT         ?PR?COLOR_BAR_ON?RA8876
            CODE    E7E4H     000CH     UNIT         ?PR?COLOR_BAR_OFF?RA8876
            CODE    E7F0H     000CH     UNIT         ?PR?HSCAN_L_TO_R?RA8876
            CODE    E7FCH     000CH     UNIT         ?PR?HSCAN_R_TO_L?RA8876
            CODE    E808H     000CH     UNIT         ?PR?VSCAN_T_TO_B?RA8876
            CODE    E814H     000CH     UNIT         ?PR?VSCAN_B_TO_T?RA8876
            CODE    E820H     000CH     UNIT         ?PR?PDATA_SET_RGB?RA8876
            CODE    E82CH     000CH     UNIT         ?PR?PDATA_IDLE_STATE?RA8876
            CODE    E838H     000CH     UNIT         ?PR?POWER_SAVING_SUSPEND_MODE?RA8876
            CODE    E844H     000CH     UNIT         ?PR?POWER_SAVING_SLEEP_MODE?RA8876
            CODE    E850H     000CH     UNIT         ?PR?_ABS?ABS
            CODE    E85CH     000BH     UNIT         ?PR?POWER_NORMAL_MODE?RA8876
            CODE    E867H     000AH     UNIT         ?PR?_TRIANGLE_POINT1_XY?RA8876
            CODE    E871H     000AH     UNIT         ?PR?_SQUARE_START_XY?RA8876
            CODE    E87BH     0009H     UNIT         ?PR?READ_INTERRUPT_STATUS?RA8876
            CODE    E884H     0009H     UNIT         ?PR?RA8876_I2CM_RECEIVER_DATA?RA8876
            CODE    E88DH     0009H     UNIT         ?PR?READ_GPIO_A_7_0?RA8876
            CODE    E896H     0009H     UNIT         ?PR?READ_GPIO_B_7_0?RA8876
            CODE    E89FH     0009H     UNIT         ?PR?READ_GPIO_C_7_0?RA8876
            CODE    E8A8H     0009H     UNIT         ?PR?READ_GPIO_D_7_0?RA8876
            CODE    E8B1H     0009H     UNIT         ?PR?READ_GPIO_E_7_0?RA8876
            CODE    E8BAH     0009H     UNIT         ?PR?READ_GPIO_F_7_0?RA8876
            CODE    E8C3H     0009H     UNIT         ?PR?READ_KEY_STROBE_DATA_0?RA8876
            CODE    E8CCH     0009H     UNIT         ?PR?READ_KEY_STROBE_DATA_1?RA8876
            CODE    E8D5H     0009H     UNIT         ?PR?READ_KEY_STROBE_DATA_2?RA8876
            CODE    E8DEH     0008H     UNIT         ?PR?CHECK_MEM_WR_FIFO_EMPTY?RA8876
            CODE    E8E6H     0008H     UNIT         ?PR?CHECK_MEM_RD_FIFO_NOT_FULL?RA8876
            CODE    E8EEH     0008H     UNIT         ?PR?CHECK_MEM_RD_FIFO_NOT_EMPTY?RA8876
            CODE    E8F6H     0008H     UNIT         ?PR?CHECK_2D_BUSY?RA8876
            CODE    E8FEH     0008H     UNIT         ?PR?CHECK_SDRAM_READY?RA8876
            CODE    E906H     0008H     UNIT         ?PR?CHECK_POWER_IS_NORMAL?RA8876
            CODE    E90EH     0008H     UNIT         ?PR?CHECK_POWER_IS_SAVING?RA8876
            CODE    E916H     0008H     UNIT         ?PR?CHECK_NO_INTERRUPT?RA8876
            CODE    E91EH     0008H     UNIT         ?PR?CHECK_INTERRUPT_OCCUR?RA8876
BL51 BANKED LINKER/LOCATER V6.22                                                      08/26/2015  16:38:21  PAGE 11


            CODE    E926H     0008H     UNIT         ?PR?CHECK_BUSY_DRAW?RA8876
            CODE    E92EH     0008H     UNIT         ?PR?CHECK_BTE_BUSY?RA8876
            CODE    E936H     0007H     UNIT         ?PR?_LCD_REGISTERREAD?RA8876
            CODE    E93DH     0007H     UNIT         ?PR?_SET_GRAPHIC_CURSOR_COLOR_1?RA8876
            CODE    E944H     0005H     UNIT         ?PR?LCD_WRITERAM_PREPARE?RA8876
            CODE    E949H     0005H     UNIT         ?PR?RA8876_I2CM_STOP?RA8876
            CODE    E94EH     0005H     UNIT         ?PR?RA8876_I2CM_READ_WITH_ACK?RA8876
            CODE    E953H     0005H     UNIT         ?PR?RA8876_I2CM_READ_WITH_NACK?RA8876
            CODE    E958H     0005H     UNIT         ?PR?RA8876_I2CM_WRITE_WITH_START?RA8876
            CODE    E95DH     0005H     UNIT         ?PR?RA8876_I2CM_WRITE?RA8876



OVERLAY MAP OF MODULE:   sd (RA8876)


SEGMENT                                            XDATA_GROUP
  +--> CALLED SEGMENT                            START    LENGTH
----------------------------------------------------------------
?C_C51STARTUP                                    -----    -----
  +--> ?PR?MAIN?RA8876
  +--> ?C_INITSEG

?PR?MAIN?RA8876                                  -----    -----
  +--> ?PR?_DELAY_MS?RA8876
  +--> ?PR?RA8876_HW_RESET?RA8876
  +--> ?PR?LCD_STATUSREAD?RA8876
  +--> ?PR?RA8876_INITIAL?RA8876
  +--> ?PR?DISPLAY_ON?RA8876
  +--> ?PR?START_SQUARE_FILL?RA8876
  +--> ?PR?ENABLE_PWM0_INTERRUPT?RA8876
  +--> ?PR?CLEAR_PWM0_INTERRUPT_FLAG?RA8876
  +--> ?PR?MASK_PWM0_INTERRUPT_FLAG?RA8876
  +--> ?PR?SELECT_PWM0_CLOCK_DIVIDED_BY_2?RA...
  +--> ?PR?SELECT_PWM0?RA8876
  +--> ?PR?ENABLE_PWM0_DEAD_ZONE?RA8876
  +--> ?PR?AUTO_RELOAD_PWM0?RA8876
  +--> ?PR?START_PWM0?RA8876
  +--> ?PR?_SET_TIMER0_COMPARE_BUFFER?RA8876
  +--> ?PR?GEOMETRIC?RA8876
  +--> ?PR?TEXT_DEMO?RA8876
  +--> ?PR?MONO_DEMO?RA8876
  +--> ?PR?GRAY?RA8876
  +--> ?PR?TPTEST?RA8876
  +--> ?PR?DISPLAY_JPG_SDCARD?RA8876
  +--> ?PR?DMA_DEMO?RA8876
  +--> ?PR?BTE_COMPARE?RA8876
  +--> ?PR?BTE_PATTERN_FILL?RA8876
  +--> ?PR?BTE_COLOR_EXPANSION?RA8876
  +--> ?PR?PIP_DEMO?RA8876
  +--> ?PR?APP_DEMO_WAVEFORM?RA8876
  +--> ?PR?APP_DEMO_SCROLLING_TEXT?RA8876
  +--> ?PR?APP_DEMO_SLIDE_FRAME_BUFFER?RA8876
  +--> ?PR?APP_DEMO_MULTI_FRAME_BUFFER?RA8876
  +--> ?PR?APP_DEMO_ALPHA_BLENDING?RA8876

?PR?_DELAY_MS?RA8876                             -----    -----
BL51 BANKED LINKER/LOCATER V6.22                                                      08/26/2015  16:38:21  PAGE 12


  +--> ?PR?_PIP_DISPLAY_START_XY?RA8876

?PR?_PIP_DISPLAY_START_XY?RA8876                 023FH    0002H
  +--> ?PR?_LCD_REGISTERWRITE?RA8876

?PR?_LCD_REGISTERWRITE?RA8876                    -----    -----
  +--> ?PR?_LCD_CMDWRITE?RA8876
  +--> ?PR?_LCD_DATAWRITE?RA8876

?PR?_LCD_CMDWRITE?RA8876                         -----    -----
  +--> ?PR?_LCD_DATAWRITE?RA8876

?PR?RA8876_HW_RESET?RA8876                       -----    -----
  +--> ?PR?_DELAY_MS?RA8876

?PR?LCD_STATUSREAD?RA8876                        023FH    0001H

?PR?RA8876_INITIAL?RA8876                        -----    -----
  +--> ?PR?RA8876_SW_RESET?RA8876
  +--> ?PR?RA8876_PLL_INITIAL?RA8876
  +--> ?PR?RA8876_SDRAM_INITAIL?RA8876
  +--> ?PR?TFT_24BIT?RA8876
  +--> ?PR?HOST_BUS_8BIT?RA8876
  +--> ?PR?RGB_8B_16BPP?RA8876
  +--> ?PR?MEMWRITE_LEFT_RIGHT_TOP_DOWN?RA8876
  +--> ?PR?GRAPHIC_MODE?RA8876
  +--> ?PR?MEMORY_SELECT_SDRAM?RA8876
  +--> ?PR?HSCAN_L_TO_R?RA8876
  +--> ?PR?VSCAN_T_TO_B?RA8876
  +--> ?PR?PDATA_SET_RGB?RA8876
  +--> ?PR?PCLK_FALLING?RA8876
  +--> ?PR?DE_HIGH_ACTIVE?RA8876
  +--> ?PR?HSYNC_HIGH_ACTIVE?RA8876
  +--> ?PR?VSYNC_HIGH_ACTIVE?RA8876
  +--> ?PR?_LCD_HORIZONTALWIDTH_VERTICALHEIG...
  +--> ?PR?_LCD_HORIZONTAL_NON_DISPLAY?RA8876
  +--> ?PR?_LCD_HSYNC_START_POSITION?RA8876
  +--> ?PR?_LCD_HSYNC_PULSE_WIDTH?RA8876
  +--> ?PR?_LCD_VERTICAL_NON_DISPLAY?RA8876
  +--> ?PR?_LCD_VSYNC_START_POSITION?RA8876
  +--> ?PR?_LCD_VSYNC_PULSE_WIDTH?RA8876
  +--> ?PR?SELECT_MAIN_WINDOW_16BPP?RA8876
  +--> ?PR?_MAIN_IMAGE_START_ADDRESS?RA8876
  +--> ?PR?_MAIN_IMAGE_WIDTH?RA8876
  +--> ?PR?_MAIN_WINDOW_START_XY?RA8876
  +--> ?PR?_CANVAS_IMAGE_START_ADDRESS?RA8876
  +--> ?PR?_CANVAS_IMAGE_WIDTH?RA8876
  +--> ?PR?_ACTIVE_WINDOW_XY?RA8876
  +--> ?PR?_ACTIVE_WINDOW_WH?RA8876
  +--> ?PR?MEMORY_XY_MODE?RA8876
  +--> ?PR?MEMORY_16BPP_MODE?RA8876

?PR?RA8876_SW_RESET?RA8876                       -----    -----
  +--> ?PR?_LCD_CMDWRITE?RA8876
  +--> ?PR?LCD_DATAREAD?RA8876
  +--> ?PR?_LCD_DATAWRITE?RA8876

BL51 BANKED LINKER/LOCATER V6.22                                                      08/26/2015  16:38:21  PAGE 13


?PR?LCD_DATAREAD?RA8876                          023FH    0001H
  +--> ?PR?_LCD_CMDWRITE?RA8876

?PR?RA8876_PLL_INITIAL?RA8876                    0213H    001AH
  +--> ?PR?_LCD_CMDWRITE?RA8876
  +--> ?PR?_LCD_DATAWRITE?RA8876
  +--> ?PR?_DELAY_US?RA8876
  +--> ?PR?_DELAY_MS?RA8876

?PR?RA8876_SDRAM_INITAIL?RA8876                  -----    -----
  +--> ?PR?_LCD_REGISTERWRITE?RA8876
  +--> ?PR?CHECK_SDRAM_READY?RA8876
  +--> ?PR?_DELAY_MS?RA8876

?PR?CHECK_SDRAM_READY?RA8876                     -----    -----
  +--> ?PR?LCD_STATUSREAD?RA8876

?PR?TFT_24BIT?RA8876                             -----    -----
  +--> ?PR?_LCD_CMDWRITE?RA8876
  +--> ?PR?LCD_DATAREAD?RA8876
  +--> ?PR?_LCD_DATAWRITE?RA8876

?PR?HOST_BUS_8BIT?RA8876                         -----    -----
  +--> ?PR?_LCD_CMDWRITE?RA8876
  +--> ?PR?LCD_DATAREAD?RA8876
  +--> ?PR?_LCD_DATAWRITE?RA8876

?PR?RGB_8B_16BPP?RA8876                          -----    -----
  +--> ?PR?_LCD_CMDWRITE?RA8876
  +--> ?PR?LCD_DATAREAD?RA8876
  +--> ?PR?_LCD_DATAWRITE?RA8876

?PR?MEMWRITE_LEFT_RIGHT_TOP_DOWN?RA8876          -----    -----
  +--> ?PR?_LCD_CMDWRITE?RA8876
  +--> ?PR?LCD_DATAREAD?RA8876
  +--> ?PR?_LCD_DATAWRITE?RA8876

?PR?GRAPHIC_MODE?RA8876                          -----    -----
  +--> ?PR?_LCD_CMDWRITE?RA8876
  +--> ?PR?LCD_DATAREAD?RA8876
  +--> ?PR?_LCD_DATAWRITE?RA8876

?PR?MEMORY_SELECT_SDRAM?RA8876                   -----    -----
  +--> ?PR?_LCD_CMDWRITE?RA8876
  +--> ?PR?LCD_DATAREAD?RA8876
  +--> ?PR?_LCD_DATAWRITE?RA8876

?PR?HSCAN_L_TO_R?RA8876                          -----    -----
  +--> ?PR?LCD_DATAREAD?RA8876
  +--> ?PR?_LCD_DATAWRITE?RA8876

?PR?VSCAN_T_TO_B?RA8876                          -----    -----
  +--> ?PR?LCD_DATAREAD?RA8876
  +--> ?PR?_LCD_DATAWRITE?RA8876

?PR?PDATA_SET_RGB?RA8876                         -----    -----
  +--> ?PR?LCD_DATAREAD?RA8876
BL51 BANKED LINKER/LOCATER V6.22                                                      08/26/2015  16:38:21  PAGE 14


  +--> ?PR?_LCD_DATAWRITE?RA8876

?PR?PCLK_FALLING?RA8876                          -----    -----
  +--> ?PR?LCD_DATAREAD?RA8876
  +--> ?PR?_LCD_DATAWRITE?RA8876

?PR?DE_HIGH_ACTIVE?RA8876                        -----    -----
  +--> ?PR?_LCD_CMDWRITE?RA8876
  +--> ?PR?LCD_DATAREAD?RA8876
  +--> ?PR?_LCD_DATAWRITE?RA8876

?PR?HSYNC_HIGH_ACTIVE?RA8876                     -----    -----
  +--> ?PR?_LCD_CMDWRITE?RA8876
  +--> ?PR?LCD_DATAREAD?RA8876
  +--> ?PR?_LCD_DATAWRITE?RA8876

?PR?VSYNC_HIGH_ACTIVE?RA8876                     -----    -----
  +--> ?PR?_LCD_CMDWRITE?RA8876
  +--> ?PR?LCD_DATAREAD?RA8876
  +--> ?PR?_LCD_DATAWRITE?RA8876

?PR?_LCD_HORIZONTALWIDTH_VERTICALHEIG...         0213H    0002H
  +--> ?PR?_LCD_CMDWRITE?RA8876
  +--> ?PR?_LCD_DATAWRITE?RA8876

?PR?_LCD_HORIZONTAL_NON_DISPLAY?RA8876           -----    -----
  +--> ?PR?_LCD_CMDWRITE?RA8876
  +--> ?PR?_LCD_DATAWRITE?RA8876

?PR?_LCD_HSYNC_START_POSITION?RA8876             -----    -----
  +--> ?PR?_LCD_CMDWRITE?RA8876
  +--> ?PR?_LCD_DATAWRITE?RA8876

?PR?_LCD_HSYNC_PULSE_WIDTH?RA8876                -----    -----
  +--> ?PR?_LCD_CMDWRITE?RA8876
  +--> ?PR?_LCD_DATAWRITE?RA8876

?PR?_LCD_VERTICAL_NON_DISPLAY?RA8876             -----    -----
  +--> ?PR?_LCD_CMDWRITE?RA8876
  +--> ?PR?_LCD_DATAWRITE?RA8876

?PR?_LCD_VSYNC_START_POSITION?RA8876             -----    -----
  +--> ?PR?_LCD_CMDWRITE?RA8876
  +--> ?PR?_LCD_DATAWRITE?RA8876

?PR?_LCD_VSYNC_PULSE_WIDTH?RA8876                -----    -----
  +--> ?PR?_LCD_CMDWRITE?RA8876
  +--> ?PR?_LCD_DATAWRITE?RA8876

?PR?SELECT_MAIN_WINDOW_16BPP?RA8876              -----    -----
  +--> ?PR?_LCD_CMDWRITE?RA8876
  +--> ?PR?LCD_DATAREAD?RA8876
  +--> ?PR?_LCD_DATAWRITE?RA8876

?PR?_MAIN_IMAGE_START_ADDRESS?RA8876             0243H    0004H
  +--> ?PR?_LCD_REGISTERWRITE?RA8876

BL51 BANKED LINKER/LOCATER V6.22                                                      08/26/2015  16:38:21  PAGE 15


?PR?_MAIN_IMAGE_WIDTH?RA8876                     -----    -----
  +--> ?PR?_LCD_REGISTERWRITE?RA8876

?PR?_MAIN_WINDOW_START_XY?RA8876                 0241H    0002H
  +--> ?PR?_MAIN_IMAGE_START_ADDRESS?RA8876
  +--> ?PR?_MAIN_IMAGE_WIDTH?RA8876
  +--> ?PR?_LCD_REGISTERWRITE?RA8876

?PR?_CANVAS_IMAGE_START_ADDRESS?RA8876           0241H    0004H
  +--> ?PR?_LCD_REGISTERWRITE?RA8876

?PR?_CANVAS_IMAGE_WIDTH?RA8876                   -----    -----
  +--> ?PR?_LCD_REGISTERWRITE?RA8876

?PR?_ACTIVE_WINDOW_XY?RA8876                     0241H    0002H
  +--> ?PR?_CANVAS_IMAGE_WIDTH?RA8876
  +--> ?PR?_LCD_REGISTERWRITE?RA8876

?PR?_ACTIVE_WINDOW_WH?RA8876                     023FH    0002H
  +--> ?PR?_MAIN_IMAGE_START_ADDRESS?RA8876
  +--> ?PR?_MAIN_IMAGE_WIDTH?RA8876
  +--> ?PR?_MAIN_WINDOW_START_XY?RA8876
  +--> ?PR?_CANVAS_IMAGE_START_ADDRESS?RA8876
  +--> ?PR?_CANVAS_IMAGE_WIDTH?RA8876
  +--> ?PR?_ACTIVE_WINDOW_XY?RA8876
  +--> ?PR?_LCD_REGISTERWRITE?RA8876

?PR?MEMORY_XY_MODE?RA8876                        -----    -----
  +--> ?PR?_LCD_CMDWRITE?RA8876
  +--> ?PR?LCD_DATAREAD?RA8876
  +--> ?PR?_LCD_DATAWRITE?RA8876

?PR?MEMORY_16BPP_MODE?RA8876                     -----    -----
  +--> ?PR?_LCD_CMDWRITE?RA8876
  +--> ?PR?LCD_DATAREAD?RA8876
  +--> ?PR?_LCD_DATAWRITE?RA8876

?PR?DISPLAY_ON?RA8876                            -----    -----
  +--> ?PR?LCD_DATAREAD?RA8876
  +--> ?PR?_LCD_DATAWRITE?RA8876

?PR?START_SQUARE_FILL?RA8876                     -----    -----
  +--> ?PR?_DELAY_MS?RA8876
  +--> ?PR?_FOREGROUND_COLOR_65K?RA8876
  +--> ?PR?_LINE_START_XY?RA8876
  +--> ?PR?_LINE_END_XY?RA8876
  +--> ?PR?_LCD_CMDWRITE?RA8876
  +--> ?PR?_LCD_DATAWRITE?RA8876
  +--> ?PR?CHECK_BUSY_DRAW?RA8876

?PR?_FOREGROUND_COLOR_65K?RA8876                 -----    -----
  +--> ?PR?_LCD_CMDWRITE?RA8876
  +--> ?PR?_LCD_DATAWRITE?RA8876

?PR?_LINE_START_XY?RA8876                        -----    -----
  +--> ?PR?_CANVAS_IMAGE_START_ADDRESS?RA8876
  +--> ?PR?_FOREGROUND_COLOR_65K?RA8876
BL51 BANKED LINKER/LOCATER V6.22                                                      08/26/2015  16:38:21  PAGE 16


  +--> ?PR?_LCD_CMDWRITE?RA8876
  +--> ?PR?_LCD_DATAWRITE?RA8876

?PR?_LINE_END_XY?RA8876                          -----    -----
  +--> ?PR?_FOREGROUND_COLOR_65K?RA8876
  +--> ?PR?_LINE_START_XY?RA8876
  +--> ?PR?_LCD_CMDWRITE?RA8876
  +--> ?PR?_LCD_DATAWRITE?RA8876

?PR?CHECK_BUSY_DRAW?RA8876                       -----    -----
  +--> ?PR?LCD_STATUSREAD?RA8876

?PR?ENABLE_PWM0_INTERRUPT?RA8876                 -----    -----
  +--> ?PR?_LCD_CMDWRITE?RA8876
  +--> ?PR?LCD_DATAREAD?RA8876
  +--> ?PR?_LCD_DATAWRITE?RA8876

?PR?CLEAR_PWM0_INTERRUPT_FLAG?RA8876             -----    -----
  +--> ?PR?_LCD_CMDWRITE?RA8876
  +--> ?PR?LCD_DATAREAD?RA8876
  +--> ?PR?_LCD_DATAWRITE?RA8876

?PR?MASK_PWM0_INTERRUPT_FLAG?RA8876              -----    -----
  +--> ?PR?_LCD_CMDWRITE?RA8876
  +--> ?PR?LCD_DATAREAD?RA8876
  +--> ?PR?_LCD_DATAWRITE?RA8876

?PR?SELECT_PWM0_CLOCK_DIVIDED_BY_2?RA...         -----    -----
  +--> ?PR?_LCD_CMDWRITE?RA8876
  +--> ?PR?LCD_DATAREAD?RA8876
  +--> ?PR?_LCD_DATAWRITE?RA8876

?PR?SELECT_PWM0?RA8876                           -----    -----
  +--> ?PR?_LCD_CMDWRITE?RA8876
  +--> ?PR?LCD_DATAREAD?RA8876
  +--> ?PR?_LCD_DATAWRITE?RA8876

?PR?ENABLE_PWM0_DEAD_ZONE?RA8876                 -----    -----
  +--> ?PR?_LCD_CMDWRITE?RA8876
  +--> ?PR?LCD_DATAREAD?RA8876
  +--> ?PR?_LCD_DATAWRITE?RA8876

?PR?AUTO_RELOAD_PWM0?RA8876                      -----    -----
  +--> ?PR?_LCD_CMDWRITE?RA8876
  +--> ?PR?LCD_DATAREAD?RA8876
  +--> ?PR?_LCD_DATAWRITE?RA8876

?PR?START_PWM0?RA8876                            -----    -----
  +--> ?PR?_LCD_CMDWRITE?RA8876
  +--> ?PR?LCD_DATAREAD?RA8876
  +--> ?PR?_LCD_DATAWRITE?RA8876

?PR?_SET_TIMER0_COMPARE_BUFFER?RA8876            -----    -----
  +--> ?PR?_LCD_CMDWRITE?RA8876
  +--> ?PR?_LCD_DATAWRITE?RA8876

?PR?GEOMETRIC?RA8876                             0213H    0002H
BL51 BANKED LINKER/LOCATER V6.22                                                      08/26/2015  16:38:21  PAGE 17


  +--> ?PR?SELECT_MAIN_WINDOW_16BPP?RA8876
  +--> ?PR?_ACTIVE_WINDOW_WH?RA8876
  +--> ?PR?START_SQUARE_FILL?RA8876
  +--> ?PR?START_SQUARE?RA8876
  +--> ?PR?_DELAY_MS?RA8876
  +--> ?PR?START_CIRCLE_SQUARE?RA8876
  +--> ?PR?_CIRCLE_CENTER_XY?RA8876
  +--> ?PR?_CIRCLE_RADIUS_R?RA8876
  +--> ?PR?START_CIRCLE_OR_ELLIPSE?RA8876
  +--> ?PR?START_TRIANGLE?RA8876
  +--> ?PR?_FOREGROUND_COLOR_65K?RA8876
  +--> ?PR?_LINE_START_XY?RA8876
  +--> ?PR?_LINE_END_XY?RA8876
  +--> ?PR?START_LINE?RA8876

?PR?START_SQUARE?RA8876                          -----    -----
  +--> ?PR?_FOREGROUND_COLOR_65K?RA8876
  +--> ?PR?_LINE_START_XY?RA8876
  +--> ?PR?_LINE_END_XY?RA8876
  +--> ?PR?_LCD_CMDWRITE?RA8876
  +--> ?PR?_LCD_DATAWRITE?RA8876
  +--> ?PR?CHECK_BUSY_DRAW?RA8876

?PR?START_CIRCLE_SQUARE?RA8876                   -----    -----
  +--> ?PR?_FOREGROUND_COLOR_65K?RA8876
  +--> ?PR?_LINE_START_XY?RA8876
  +--> ?PR?_LINE_END_XY?RA8876
  +--> ?PR?_CIRCLE_SQUARE_RADIUS_RXRY?RA8876
  +--> ?PR?_LCD_CMDWRITE?RA8876
  +--> ?PR?_LCD_DATAWRITE?RA8876
  +--> ?PR?CHECK_BUSY_DRAW?RA8876

?PR?_CIRCLE_SQUARE_RADIUS_RXRY?RA8876            -----    -----
  +--> ?PR?_LCD_CMDWRITE?RA8876
  +--> ?PR?_LCD_DATAWRITE?RA8876

?PR?_CIRCLE_CENTER_XY?RA8876                     -----    -----
  +--> ?PR?_FOREGROUND_COLOR_65K?RA8876
  +--> ?PR?_LCD_CMDWRITE?RA8876
  +--> ?PR?_LCD_DATAWRITE?RA8876

?PR?_CIRCLE_RADIUS_R?RA8876                      -----    -----
  +--> ?PR?_LCD_CMDWRITE?RA8876
  +--> ?PR?_LCD_DATAWRITE?RA8876

?PR?START_CIRCLE_OR_ELLIPSE?RA8876               -----    -----
  +--> ?PR?_ELLIPSE_RADIUS_RXRY?RA8876
  +--> ?PR?_LCD_CMDWRITE?RA8876
  +--> ?PR?_LCD_DATAWRITE?RA8876
  +--> ?PR?CHECK_BUSY_DRAW?RA8876

?PR?_ELLIPSE_RADIUS_RXRY?RA8876                  -----    -----
  +--> ?PR?_LCD_CMDWRITE?RA8876
  +--> ?PR?_LCD_DATAWRITE?RA8876

?PR?START_TRIANGLE?RA8876                        -----    -----
  +--> ?PR?_FOREGROUND_COLOR_65K?RA8876
BL51 BANKED LINKER/LOCATER V6.22                                                      08/26/2015  16:38:21  PAGE 18


  +--> ?PR?_TRIANGLE_POINT1_XY?RA8876
  +--> ?PR?_TRIANGLE_POINT2_XY?RA8876
  +--> ?PR?_TRIANGLE_POINT3_XY?RA8876
  +--> ?PR?_LCD_CMDWRITE?RA8876
  +--> ?PR?_LCD_DATAWRITE?RA8876
  +--> ?PR?CHECK_BUSY_DRAW?RA8876

?PR?_TRIANGLE_POINT1_XY?RA8876                   -----    -----
  +--> ?PR?_LCD_CMDWRITE?RA8876
  +--> ?PR?_LCD_DATAWRITE?RA8876

?PR?_TRIANGLE_POINT2_XY?RA8876                   -----    -----
  +--> ?PR?_LCD_CMDWRITE?RA8876
  +--> ?PR?_LCD_DATAWRITE?RA8876

?PR?_TRIANGLE_POINT3_XY?RA8876                   -----    -----
  +--> ?PR?_LCD_CMDWRITE?RA8876
  +--> ?PR?_LCD_DATAWRITE?RA8876

?PR?START_LINE?RA8876                            -----    -----
  +--> ?PR?_FOREGROUND_COLOR_65K?RA8876
  +--> ?PR?_LINE_START_XY?RA8876
  +--> ?PR?_LINE_END_XY?RA8876
  +--> ?PR?_LCD_CMDWRITE?RA8876
  +--> ?PR?_LCD_DATAWRITE?RA8876
  +--> ?PR?CHECK_BUSY_DRAW?RA8876

?PR?TEXT_DEMO?RA8876                             0213H    0004H
  +--> ?PR?SELECT_MAIN_WINDOW_16BPP?RA8876
  +--> ?PR?_ACTIVE_WINDOW_WH?RA8876
  +--> ?PR?_LINE_START_XY?RA8876
  +--> ?PR?START_SQUARE_FILL?RA8876
  +--> ?PR?_FOREGROUND_COLOR_65K?RA8876
  +--> ?CO?RA8876
  +--> ?PR?_LCD_DISPLAYSTRING?RA8876
  +--> ?PR?_BACKGROUND_COLOR_65K?RA8876
  +--> ?PR?CGROM_SELECT_INTERNAL_CGROM?RA8876
  +--> ?PR?FONT_SELECT_12X24_24X24?RA8876
  +--> ?PR?_GOTO_TEXT_XY?RA8876
  +--> ?PR?_SHOW_STRING?RA8876
  +--> ?PR?NEXTSTEP?RA8876
  +--> ?PR?FONT_SELECT_8X16_16X16?RA8876
  +--> ?PR?FONT_SELECT_16X32_32X32?RA8876
  +--> ?PR?FONT_WIDTH_X1?RA8876
  +--> ?PR?FONT_HEIGHT_X1?RA8876
  +--> ?PR?CGROM_SELECT_GENITOP_FONTROM?RA8876
  +--> ?PR?GTFONT_SELECT_GT23L24T3Y_GT23H24T...
  +--> ?PR?SELECT_SFI_0?RA8876
  +--> ?PR?SELECT_SFI_FONT_MODE?RA8876
  +--> ?PR?SELECT_SFI_24BIT_ADDRESS?RA8876
  +--> ?PR?SELECT_SFI_WAVEFORM_MODE_0?RA8876
  +--> ?PR?SELECT_SFI_0_DUMMYREAD?RA8876
  +--> ?PR?SELECT_SFI_SINGLE_MODE?RA8876
  +--> ?PR?_SPI_CLOCK_PERIOD?RA8876
  +--> ?PR?ENABLE_SFLASH_SPI?RA8876
  +--> ?PR?_SET_GTFONT_DECODER?RA8876
  +--> ?PR?FONT_BACKGROUND_SELECT_TRANSPAREN...
BL51 BANKED LINKER/LOCATER V6.22                                                      08/26/2015  16:38:21  PAGE 19


  +--> ?PR?_ACTIVE_WINDOW_XY?RA8876
  +--> ?PR?_GOTO_PIXEL_XY?RA8876
  +--> ?PR?_SHOW_PICTURE?RA8876
  +--> ?PR?FONT_BACKGROUND_SELECT_COLOR?RA8876
  +--> ?PR?TEXT_CURSOR_INITIAL?RA8876
  +--> ?PR?_DELAY_MS?RA8876
  +--> ?PR?_TEXT_CURSOR_H_V?RA8876
  +--> ?PR?DISABLE_TEXT_CURSOR?RA8876
  +--> ?PR?_SET_GRAPHIC_CURSOR_COLOR_2?RA8876
  +--> ?PR?GRAPHIC_CURSOR_INITIAL?RA8876
  +--> ?PR?_GRAPHIC_CURSOR_XY?RA8876
  +--> ?PR?SELECT_GRAPHIC_CURSOR_1?RA8876
  +--> ?PR?SELECT_GRAPHIC_CURSOR_2?RA8876
  +--> ?PR?SELECT_GRAPHIC_CURSOR_3?RA8876
  +--> ?PR?SELECT_GRAPHIC_CURSOR_4?RA8876
  +--> ?PR?DISABLE_GRAPHIC_CURSOR?RA8876

?PR?_LCD_DISPLAYSTRING?RA8876                    0217H    000FH
  +--> ?PR?_LCD_PUTCHAR?RA8876

?PR?_LCD_PUTCHAR?RA8876                          0226H    000FH
  +--> ?CO?RA8876
  +--> ?PR?_LCD_SETPOINT?RA8876

?PR?_LCD_SETPOINT?RA8876                         0261H    0002H
  +--> ?PR?_LCD_SETCURSOR?RA8876
  +--> ?PR?LCD_WRITERAM_PREPARE?RA8876
  +--> ?PR?_LCD_DATAWRITE?RA8876

?PR?_LCD_SETCURSOR?RA8876                        -----    -----
  +--> ?PR?_LCD_CMDWRITE?RA8876
  +--> ?PR?_LCD_DATAWRITE?RA8876

?PR?LCD_WRITERAM_PREPARE?RA8876                  -----    -----
  +--> ?PR?_LCD_CMDWRITE?RA8876

?PR?_BACKGROUND_COLOR_65K?RA8876                 -----    -----
  +--> ?PR?_FOREGROUND_COLOR_65K?RA8876
  +--> ?PR?_LCD_CMDWRITE?RA8876
  +--> ?PR?_LCD_DATAWRITE?RA8876

?PR?CGROM_SELECT_INTERNAL_CGROM?RA8876           -----    -----
  +--> ?PR?_FOREGROUND_COLOR_65K?RA8876
  +--> ?PR?_BACKGROUND_COLOR_65K?RA8876
  +--> ?PR?_LCD_CMDWRITE?RA8876
  +--> ?PR?LCD_DATAREAD?RA8876
  +--> ?PR?_LCD_DATAWRITE?RA8876

?PR?FONT_SELECT_12X24_24X24?RA8876               -----    -----
  +--> ?PR?_FOREGROUND_COLOR_65K?RA8876
  +--> ?PR?_BACKGROUND_COLOR_65K?RA8876
  +--> ?PR?_LCD_CMDWRITE?RA8876
  +--> ?PR?LCD_DATAREAD?RA8876
  +--> ?PR?_LCD_DATAWRITE?RA8876

?PR?_GOTO_TEXT_XY?RA8876                         023DH    0002H
  +--> ?PR?_LCD_REGISTERWRITE?RA8876
BL51 BANKED LINKER/LOCATER V6.22                                                      08/26/2015  16:38:21  PAGE 20



?PR?_SHOW_STRING?RA8876                          -----    -----
  +--> ?PR?_GOTO_TEXT_XY?RA8876
  +--> ?CO?RA8876
  +--> ?PR?TEXT_MODE?RA8876
  +--> ?PR?_LCD_CMDWRITE?RA8876
  +--> ?PR?_LCD_DATAWRITE?RA8876
  +--> ?PR?CHECK_MEM_WR_FIFO_NOT_FULL?RA8876
  +--> ?PR?CHECK_2D_BUSY?RA8876
  +--> ?PR?GRAPHIC_MODE?RA8876

?PR?TEXT_MODE?RA8876                             -----    -----
  +--> ?PR?_LCD_CMDWRITE?RA8876
  +--> ?PR?LCD_DATAREAD?RA8876
  +--> ?PR?_LCD_DATAWRITE?RA8876

?PR?CHECK_MEM_WR_FIFO_NOT_FULL?RA8876            -----    -----
  +--> ?PR?_LCD_DATAWRITE?RA8876
  +--> ?PR?LCD_STATUSREAD?RA8876

?PR?CHECK_2D_BUSY?RA8876                         -----    -----
  +--> ?PR?LCD_STATUSREAD?RA8876

?PR?NEXTSTEP?RA8876                              -----    -----
  +--> ?PR?_DELAY100MS?RA8876

?PR?_DELAY100MS?RA8876                           0223H    0002H
  +--> ?PR?_DELAY_MS?RA8876

?PR?FONT_SELECT_8X16_16X16?RA8876                -----    -----
  +--> ?PR?_LCD_CMDWRITE?RA8876
  +--> ?PR?LCD_DATAREAD?RA8876
  +--> ?PR?_LCD_DATAWRITE?RA8876

?PR?FONT_SELECT_16X32_32X32?RA8876               -----    -----
  +--> ?PR?_LCD_CMDWRITE?RA8876
  +--> ?PR?LCD_DATAREAD?RA8876
  +--> ?PR?_LCD_DATAWRITE?RA8876

?PR?FONT_WIDTH_X1?RA8876                         -----    -----
  +--> ?PR?_LCD_CMDWRITE?RA8876
  +--> ?PR?LCD_DATAREAD?RA8876
  +--> ?PR?_LCD_DATAWRITE?RA8876

?PR?FONT_HEIGHT_X1?RA8876                        -----    -----
  +--> ?PR?_LCD_CMDWRITE?RA8876
  +--> ?PR?LCD_DATAREAD?RA8876
  +--> ?PR?_LCD_DATAWRITE?RA8876

?PR?CGROM_SELECT_GENITOP_FONTROM?RA8876          -----    -----
  +--> ?PR?_LCD_CMDWRITE?RA8876
  +--> ?PR?LCD_DATAREAD?RA8876
  +--> ?PR?_LCD_DATAWRITE?RA8876

?PR?GTFONT_SELECT_GT23L24T3Y_GT23H24T...         -----    -----
  +--> ?PR?_LCD_CMDWRITE?RA8876
  +--> ?PR?LCD_DATAREAD?RA8876
BL51 BANKED LINKER/LOCATER V6.22                                                      08/26/2015  16:38:21  PAGE 21


  +--> ?PR?_LCD_DATAWRITE?RA8876

?PR?SELECT_SFI_0?RA8876                          -----    -----
  +--> ?PR?_LCD_CMDWRITE?RA8876
  +--> ?PR?LCD_DATAREAD?RA8876
  +--> ?PR?_LCD_DATAWRITE?RA8876

?PR?SELECT_SFI_FONT_MODE?RA8876                  -----    -----
  +--> ?PR?_LCD_CMDWRITE?RA8876
  +--> ?PR?LCD_DATAREAD?RA8876
  +--> ?PR?_LCD_DATAWRITE?RA8876

?PR?SELECT_SFI_24BIT_ADDRESS?RA8876              -----    -----
  +--> ?PR?_LCD_CMDWRITE?RA8876
  +--> ?PR?LCD_DATAREAD?RA8876
  +--> ?PR?_LCD_DATAWRITE?RA8876

?PR?SELECT_SFI_WAVEFORM_MODE_0?RA8876            -----    -----
  +--> ?PR?_LCD_CMDWRITE?RA8876
  +--> ?PR?LCD_DATAREAD?RA8876
  +--> ?PR?_LCD_DATAWRITE?RA8876

?PR?SELECT_SFI_0_DUMMYREAD?RA8876                -----    -----
  +--> ?PR?_LCD_CMDWRITE?RA8876
  +--> ?PR?LCD_DATAREAD?RA8876
  +--> ?PR?_LCD_DATAWRITE?RA8876

?PR?SELECT_SFI_SINGLE_MODE?RA8876                -----    -----
  +--> ?PR?_LCD_CMDWRITE?RA8876
  +--> ?PR?LCD_DATAREAD?RA8876
  +--> ?PR?_LCD_DATAWRITE?RA8876

?PR?_SPI_CLOCK_PERIOD?RA8876                     -----    -----
  +--> ?PR?_LCD_CMDWRITE?RA8876
  +--> ?PR?_LCD_DATAWRITE?RA8876

?PR?ENABLE_SFLASH_SPI?RA8876                     -----    -----
  +--> ?PR?_LCD_CMDWRITE?RA8876
  +--> ?PR?LCD_DATAREAD?RA8876
  +--> ?PR?_LCD_DATAWRITE?RA8876

?PR?_SET_GTFONT_DECODER?RA8876                   -----    -----
  +--> ?PR?_LCD_CMDWRITE?RA8876
  +--> ?PR?_LCD_DATAWRITE?RA8876

?PR?FONT_BACKGROUND_SELECT_TRANSPAREN...         -----    -----
  +--> ?PR?_LCD_CMDWRITE?RA8876
  +--> ?PR?LCD_DATAREAD?RA8876
  +--> ?PR?_LCD_DATAWRITE?RA8876

?PR?_GOTO_PIXEL_XY?RA8876                        021BH    0002H
  +--> ?PR?_ACTIVE_WINDOW_WH?RA8876
  +--> ?PR?_LCD_REGISTERWRITE?RA8876

?PR?_SHOW_PICTURE?RA8876                         0217H    000BH
  +--> ?PR?_LCD_CMDWRITE?RA8876
  +--> ?PR?_LCD_DATAWRITE?RA8876
BL51 BANKED LINKER/LOCATER V6.22                                                      08/26/2015  16:38:21  PAGE 22


  +--> ?PR?CHECK_MEM_WR_FIFO_NOT_FULL?RA8876

?PR?FONT_BACKGROUND_SELECT_COLOR?RA8876          -----    -----
  +--> ?PR?_LCD_CMDWRITE?RA8876
  +--> ?PR?LCD_DATAREAD?RA8876
  +--> ?PR?_LCD_DATAWRITE?RA8876

?PR?TEXT_CURSOR_INITIAL?RA8876                   -----    -----
  +--> ?PR?ENABLE_TEXT_CURSOR_BLINKING?RA8876
  +--> ?PR?_BLINKING_TIME_FRAMES?RA8876
  +--> ?PR?_TEXT_CURSOR_H_V?RA8876
  +--> ?PR?ENABLE_TEXT_CURSOR?RA8876

?PR?ENABLE_TEXT_CURSOR_BLINKING?RA8876           -----    -----
  +--> ?PR?_LCD_CMDWRITE?RA8876
  +--> ?PR?LCD_DATAREAD?RA8876
  +--> ?PR?_LCD_DATAWRITE?RA8876

?PR?_BLINKING_TIME_FRAMES?RA8876                 -----    -----
  +--> ?PR?_LCD_CMDWRITE?RA8876
  +--> ?PR?_LCD_DATAWRITE?RA8876

?PR?_TEXT_CURSOR_H_V?RA8876                      -----    -----
  +--> ?PR?_LCD_CMDWRITE?RA8876
  +--> ?PR?_LCD_DATAWRITE?RA8876

?PR?ENABLE_TEXT_CURSOR?RA8876                    -----    -----
  +--> ?PR?_LCD_CMDWRITE?RA8876
  +--> ?PR?LCD_DATAREAD?RA8876
  +--> ?PR?_LCD_DATAWRITE?RA8876

?PR?DISABLE_TEXT_CURSOR?RA8876                   -----    -----
  +--> ?PR?_LCD_CMDWRITE?RA8876
  +--> ?PR?LCD_DATAREAD?RA8876
  +--> ?PR?_LCD_DATAWRITE?RA8876

?PR?_SET_GRAPHIC_CURSOR_COLOR_2?RA8876           -----    -----
  +--> ?PR?_SET_GRAPHIC_CURSOR_COLOR_1?RA8876
  +--> ?PR?_LCD_REGISTERWRITE?RA8876

?PR?_SET_GRAPHIC_CURSOR_COLOR_1?RA8876           -----    -----
  +--> ?PR?_LCD_REGISTERWRITE?RA8876

?PR?GRAPHIC_CURSOR_INITIAL?RA8876                -----    -----
  +--> ?PR?MEMORY_SELECT_GRAPHIC_CURSOR_RAM?...
  +--> ?PR?GRAPHIC_MODE?RA8876
  +--> ?PR?SELECT_GRAPHIC_CURSOR_1?RA8876
  +--> ?PR?_LCD_CMDWRITE?RA8876
  +--> ?CO?RA8876
  +--> ?PR?_LCD_DATAWRITE?RA8876
  +--> ?PR?SELECT_GRAPHIC_CURSOR_2?RA8876
  +--> ?PR?SELECT_GRAPHIC_CURSOR_3?RA8876
  +--> ?PR?SELECT_GRAPHIC_CURSOR_4?RA8876
  +--> ?PR?MEMORY_SELECT_SDRAM?RA8876
  +--> ?PR?_SET_GRAPHIC_CURSOR_COLOR_2?RA8876
  +--> ?PR?_GRAPHIC_CURSOR_XY?RA8876
  +--> ?PR?ENABLE_GRAPHIC_CURSOR?RA8876
BL51 BANKED LINKER/LOCATER V6.22                                                      08/26/2015  16:38:21  PAGE 23



?PR?MEMORY_SELECT_GRAPHIC_CURSOR_RAM?...         -----    -----
  +--> ?PR?_LCD_CMDWRITE?RA8876
  +--> ?PR?LCD_DATAREAD?RA8876
  +--> ?PR?_LCD_DATAWRITE?RA8876

?PR?SELECT_GRAPHIC_CURSOR_1?RA8876               -----    -----
  +--> ?PR?_LCD_CMDWRITE?RA8876
  +--> ?PR?LCD_DATAREAD?RA8876
  +--> ?PR?_LCD_DATAWRITE?RA8876

?PR?SELECT_GRAPHIC_CURSOR_2?RA8876               -----    -----
  +--> ?PR?_DELAY_MS?RA8876
  +--> ?PR?_LCD_CMDWRITE?RA8876
  +--> ?PR?LCD_DATAREAD?RA8876
  +--> ?PR?_LCD_DATAWRITE?RA8876

?PR?SELECT_GRAPHIC_CURSOR_3?RA8876               -----    -----
  +--> ?PR?_LCD_CMDWRITE?RA8876
  +--> ?PR?LCD_DATAREAD?RA8876
  +--> ?PR?_LCD_DATAWRITE?RA8876

?PR?SELECT_GRAPHIC_CURSOR_4?RA8876               -----    -----
  +--> ?PR?_LCD_CMDWRITE?RA8876
  +--> ?PR?LCD_DATAREAD?RA8876
  +--> ?PR?_LCD_DATAWRITE?RA8876

?PR?_GRAPHIC_CURSOR_XY?RA8876                    0217H    0002H
  +--> ?PR?_LCD_REGISTERWRITE?RA8876

?PR?ENABLE_GRAPHIC_CURSOR?RA8876                 -----    -----
  +--> ?PR?_LCD_CMDWRITE?RA8876
  +--> ?PR?LCD_DATAREAD?RA8876
  +--> ?PR?_LCD_DATAWRITE?RA8876

?PR?DISABLE_GRAPHIC_CURSOR?RA8876                -----    -----
  +--> ?PR?_LCD_CMDWRITE?RA8876
  +--> ?PR?LCD_DATAREAD?RA8876
  +--> ?PR?_LCD_DATAWRITE?RA8876

?PR?MONO_DEMO?RA8876                             -----    -----
  +--> ?PR?SELECT_MAIN_WINDOW_16BPP?RA8876
  +--> ?PR?_ACTIVE_WINDOW_WH?RA8876
  +--> ?PR?START_SQUARE_FILL?RA8876
  +--> ?PR?NEXTSTEP?RA8876

?PR?GRAY?RA8876                                  0213H    0006H
  +--> ?PR?SELECT_MAIN_WINDOW_16BPP?RA8876
  +--> ?PR?_ACTIVE_WINDOW_WH?RA8876
  +--> ?PR?_LINE_END_XY?RA8876
  +--> ?PR?START_SQUARE_FILL?RA8876
  +--> ?PR?_FOREGROUND_COLOR_65K?RA8876
  +--> ?PR?_LINE_START_XY?RA8876
  +--> ?PR?_DELAY_MS?RA8876
  +--> ?PR?NEXTSTEP?RA8876

?PR?TPTEST?RA8876                                0213H    0007H
BL51 BANKED LINKER/LOCATER V6.22                                                      08/26/2015  16:38:21  PAGE 24


  +--> ?PR?_FAST_CLEAR?RA8876
  +--> ?PR?TP_ADJUST?RA8876
  +--> ?PR?CGROM_SELECT_INTERNAL_CGROM?RA8876
  +--> ?PR?FONT_SELECT_8X16_16X16?RA8876
  +--> ?PR?_GOTO_TEXT_XY?RA8876
  +--> ?CO?RA8876
  +--> ?PR?_SHOW_STRING?RA8876
  +--> ?PR?_TP_SCAN?RA8876
  +--> ?PR?LOAD_DROW_DIALOG?RA8876
  +--> ?PR?_LCD_DRAWPOINT?RA8876
  +--> ?PR?_DELAY_MS?RA8876

?PR?_FAST_CLEAR?RA8876                           023DH    0002H
  +--> ?PR?SELECT_MAIN_WINDOW_16BPP?RA8876
  +--> ?PR?_ACTIVE_WINDOW_WH?RA8876
  +--> ?PR?_LINE_START_XY?RA8876
  +--> ?PR?_LINE_END_XY?RA8876
  +--> ?PR?START_SQUARE_FILL?RA8876

?PR?TP_ADJUST?RA8876                             021AH    0023H
  +--> ?PR?CGROM_SELECT_INTERNAL_CGROM?RA8876
  +--> ?PR?FONT_SELECT_8X16_16X16?RA8876
  +--> ?PR?_GOTO_TEXT_XY?RA8876
  +--> ?CO?RA8876
  +--> ?PR?_SHOW_STRING?RA8876
  +--> ?PR?_TP_DROW_TOUCH_POINT?RA8876
  +--> ?PR?_TP_SCAN?RA8876
  +--> ?PR?_MY_ABS?RA8876
  +--> ?PR?SQRT?SQRT
  +--> ?PR?_ABS?ABS
  +--> ?PR?_DELAY_MS?RA8876
  +--> ?PR?_FAST_CLEAR?RA8876

?PR?_TP_DROW_TOUCH_POINT?RA8876                  023DH    0006H
  +--> ?PR?_LCD_DRAWLINE?RA8876
  +--> ?PR?_LCD_DRAWPOINT?RA8876

?PR?_LCD_DRAWLINE?RA8876                         0243H    001EH
  +--> ?PR?_LCD_SETPOINT?RA8876

?PR?_LCD_DRAWPOINT?RA8876                        -----    -----
  +--> ?PR?_LCD_SETCURSOR?RA8876
  +--> ?PR?LCD_WRITERAM_PREPARE?RA8876
  +--> ?PR?_LCD_DATAWRITE?RA8876

?PR?_TP_SCAN?RA8876                              -----    -----
  +--> ?PR?_DELAY_MS?RA8876
  +--> ?PR?_TP_READ_XY2?RA8876

?PR?_TP_READ_XY2?RA8876                          023DH    000EH
  +--> ?PR?_TP_READ_XY?RA8876

?PR?_TP_READ_XY?RA8876                           024BH    0008H
  +--> ?PR?_TP_READ_XOY?RA8876

?PR?_TP_READ_XOY?RA8876                          0253H    001AH
  +--> ?PR?_TP_READ_AD?RA8876
BL51 BANKED LINKER/LOCATER V6.22                                                      08/26/2015  16:38:21  PAGE 25



?PR?_TP_READ_AD?RA8876                           -----    -----
  +--> ?PR?_TP_WRITE_BYTE?RA8876

?PR?SQRT?SQRT                                    023DH    0004H

?PR?LOAD_DROW_DIALOG?RA8876                      -----    -----
  +--> ?PR?_FAST_CLEAR?RA8876
  +--> ?PR?CGROM_SELECT_INTERNAL_CGROM?RA8876
  +--> ?PR?FONT_SELECT_8X16_16X16?RA8876
  +--> ?PR?_GOTO_TEXT_XY?RA8876
  +--> ?CO?RA8876
  +--> ?PR?_SHOW_STRING?RA8876

?PR?DISPLAY_JPG_SDCARD?RA8876                    0213H    0009H
  +--> ?PR?SELECT_MAIN_WINDOW_16BPP?RA8876
  +--> ?PR?_ACTIVE_WINDOW_WH?RA8876
  +--> ?PR?START_SQUARE_FILL?RA8876
  +--> ?PR?SDINIT?RA8876
  +--> ?PR?_LCD_SETCURSOR?RA8876
  +--> ?PR?_SDREADBLOCK?RA8876
  +--> ?PR?LCD_WRITERAM_PREPARE?RA8876
  +--> ?PR?_LCD_DATAWRITE?RA8876
  +--> ?PR?NEXTSTEP?RA8876

?PR?SDINIT?RA8876                                021CH    0004H
  +--> ?PR?_SDWRITE?RA8876
  +--> ?PR?SDRESPONSE?RA8876

?PR?SDRESPONSE?RA8876                            -----    -----
  +--> ?PR?_SDCOMMAND?RA8876
  +--> ?PR?SDREAD?RA8876

?PR?_SDCOMMAND?RA8876                            0225H    0006H
  +--> ?PR?_SDWRITE?RA8876

?PR?_SDREADBLOCK?RA8876                          021CH    0009H
  +--> ?PR?_SDCOMMAND?RA8876
  +--> ?PR?SDRESPONSE?RA8876
  +--> ?PR?SDREAD?RA8876

?PR?DMA_DEMO?RA8876                              0213H    0004H
  +--> ?PR?SELECT_MAIN_WINDOW_16BPP?RA8876
  +--> ?PR?_ACTIVE_WINDOW_WH?RA8876
  +--> ?PR?_LINE_START_XY?RA8876
  +--> ?PR?START_SQUARE_FILL?RA8876
  +--> ?PR?_FOREGROUND_COLOR_65K?RA8876
  +--> ?PR?_BACKGROUND_COLOR_65K?RA8876
  +--> ?PR?CGROM_SELECT_INTERNAL_CGROM?RA8876
  +--> ?PR?FONT_SELECT_12X24_24X24?RA8876
  +--> ?PR?_GOTO_TEXT_XY?RA8876
  +--> ?CO?RA8876
  +--> ?PR?_SHOW_STRING?RA8876
  +--> ?PR?ENABLE_SFLASH_SPI?RA8876
  +--> ?PR?SELECT_SFI_1?RA8876
  +--> ?PR?SELECT_SFI_DMA_MODE?RA8876
  +--> ?PR?SELECT_SFI_24BIT_ADDRESS?RA8876
BL51 BANKED LINKER/LOCATER V6.22                                                      08/26/2015  16:38:21  PAGE 26


  +--> ?PR?SELECT_SFI_WAVEFORM_MODE_3?RA8876
  +--> ?PR?SELECT_SFI_8_DUMMYREAD?RA8876
  +--> ?PR?SELECT_SFI_SINGLE_MODE?RA8876
  +--> ?PR?_SPI_CLOCK_PERIOD?RA8876
  +--> ?PR?_SFI_DMA_DESTINATION_UPPER_LEFT_C...
  +--> ?PR?_SFI_DMA_SOURCE_WIDTH?RA8876
  +--> ?PR?START_SFI_DMA?RA8876
  +--> ?PR?CHECK_BUSY_SFI_DMA?RA8876
  +--> ?PR?_DELAY_MS?RA8876
  +--> ?PR?NEXTSTEP?RA8876

?PR?SELECT_SFI_1?RA8876                          -----    -----
  +--> ?PR?_LCD_CMDWRITE?RA8876
  +--> ?PR?LCD_DATAREAD?RA8876
  +--> ?PR?_LCD_DATAWRITE?RA8876

?PR?SELECT_SFI_DMA_MODE?RA8876                   -----    -----
  +--> ?PR?_LCD_CMDWRITE?RA8876
  +--> ?PR?LCD_DATAREAD?RA8876
  +--> ?PR?_LCD_DATAWRITE?RA8876

?PR?SELECT_SFI_WAVEFORM_MODE_3?RA8876            -----    -----
  +--> ?PR?_LCD_CMDWRITE?RA8876
  +--> ?PR?LCD_DATAREAD?RA8876
  +--> ?PR?_LCD_DATAWRITE?RA8876

?PR?SELECT_SFI_8_DUMMYREAD?RA8876                -----    -----
  +--> ?PR?_LCD_CMDWRITE?RA8876
  +--> ?PR?LCD_DATAREAD?RA8876
  +--> ?PR?_LCD_DATAWRITE?RA8876

?PR?_SFI_DMA_DESTINATION_UPPER_LEFT_C...         -----    -----
  +--> ?PR?_CANVAS_IMAGE_START_ADDRESS?RA8876
  +--> ?PR?_CANVAS_IMAGE_WIDTH?RA8876
  +--> ?PR?_LCD_CMDWRITE?RA8876
  +--> ?PR?_LCD_DATAWRITE?RA8876

?PR?_SFI_DMA_SOURCE_WIDTH?RA8876                 -----    -----
  +--> ?PR?_SPI_CLOCK_PERIOD?RA8876
  +--> ?PR?_SFI_DMA_DESTINATION_UPPER_LEFT_C...
  +--> ?PR?_SFI_DMA_TRANSFER_WIDTH_HEIGHT?RA...
  +--> ?PR?_LCD_CMDWRITE?RA8876
  +--> ?PR?_LCD_DATAWRITE?RA8876

?PR?_SFI_DMA_TRANSFER_WIDTH_HEIGHT?RA...         -----    -----
  +--> ?PR?_LCD_CMDWRITE?RA8876
  +--> ?PR?_LCD_DATAWRITE?RA8876

?PR?START_SFI_DMA?RA8876                         -----    -----
  +--> ?PR?_SFI_DMA_SOURCE_START_ADDRESS?RA8876
  +--> ?PR?_LCD_CMDWRITE?RA8876
  +--> ?PR?LCD_DATAREAD?RA8876
  +--> ?PR?_LCD_DATAWRITE?RA8876

?PR?_SFI_DMA_SOURCE_START_ADDRESS?RA8876         021BH    0004H
  +--> ?PR?_LCD_CMDWRITE?RA8876
  +--> ?PR?_LCD_DATAWRITE?RA8876
BL51 BANKED LINKER/LOCATER V6.22                                                      08/26/2015  16:38:21  PAGE 27



?PR?CHECK_BUSY_SFI_DMA?RA8876                    -----    -----
  +--> ?PR?_LCD_CMDWRITE?RA8876
  +--> ?PR?LCD_DATAREAD?RA8876

?PR?BTE_COMPARE?RA8876                           0213H    0004H
  +--> ?PR?SELECT_MAIN_WINDOW_16BPP?RA8876
  +--> ?PR?_ACTIVE_WINDOW_WH?RA8876
  +--> ?PR?_LINE_START_XY?RA8876
  +--> ?PR?START_SQUARE_FILL?RA8876
  +--> ?PR?_FOREGROUND_COLOR_65K?RA8876
  +--> ?PR?_BACKGROUND_COLOR_65K?RA8876
  +--> ?PR?CGROM_SELECT_INTERNAL_CGROM?RA8876
  +--> ?PR?FONT_SELECT_12X24_24X24?RA8876
  +--> ?PR?_GOTO_TEXT_XY?RA8876
  +--> ?CO?RA8876
  +--> ?PR?_SHOW_STRING?RA8876
  +--> ?PR?ENABLE_SFLASH_SPI?RA8876
  +--> ?PR?SELECT_SFI_1?RA8876
  +--> ?PR?SELECT_SFI_DMA_MODE?RA8876
  +--> ?PR?SELECT_SFI_24BIT_ADDRESS?RA8876
  +--> ?PR?SELECT_SFI_WAVEFORM_MODE_3?RA8876
  +--> ?PR?SELECT_SFI_8_DUMMYREAD?RA8876
  +--> ?PR?SELECT_SFI_SINGLE_MODE?RA8876
  +--> ?PR?_SPI_CLOCK_PERIOD?RA8876
  +--> ?PR?_SFI_DMA_DESTINATION_UPPER_LEFT_C...
  +--> ?PR?_SFI_DMA_SOURCE_WIDTH?RA8876
  +--> ?PR?_SFI_DMA_SOURCE_START_ADDRESS?RA8876
  +--> ?PR?START_SFI_DMA?RA8876
  +--> ?PR?CHECK_BUSY_SFI_DMA?RA8876
  +--> ?PR?_DELAY_MS?RA8876
  +--> ?PR?_ACTIVE_WINDOW_XY?RA8876
  +--> ?PR?_GOTO_PIXEL_XY?RA8876
  +--> ?PR?_LCD_CMDWRITE?RA8876
  +--> ?PR?LCD_DATAREAD?RA8876
  +--> ?PR?CHECK_MEM_RD_FIFO_NOT_EMPTY?RA8876
  +--> ?PR?_LCD_DATAWRITE?RA8876
  +--> ?PR?CHECK_MEM_WR_FIFO_NOT_FULL?RA8876
  +--> ?PR?BTE_S0_COLOR_16BPP?RA8876
  +--> ?PR?BTE_S1_COLOR_16BPP?RA8876
  +--> ?PR?_BTE_S1_IMAGE_WIDTH?RA8876
  +--> ?PR?BTE_DESTINATION_COLOR_16BPP?RA8876
  +--> ?PR?_BTE_DESTINATION_IMAGE_WIDTH?RA8876
  +--> ?PR?_BTE_WINDOW_SIZE?RA8876
  +--> ?PR?_BTE_ROP_CODE?RA8876
  +--> ?PR?_BTE_OPERATION_CODE?RA8876
  +--> ?PR?BTE_ENABLE?RA8876
  +--> ?PR?CHECK_MEM_WR_FIFO_EMPTY?RA8876
  +--> ?PR?CHECK_BTE_BUSY?RA8876
  +--> ?PR?_LINE_END_XY?RA8876
  +--> ?PR?_BTE_S0_WINDOW_START_XY?RA8876
  +--> ?PR?_CANVAS_IMAGE_START_ADDRESS?RA8876
  +--> ?PR?NEXTSTEP?RA8876

?PR?CHECK_MEM_RD_FIFO_NOT_EMPTY?RA8876           -----    -----
  +--> ?PR?LCD_STATUSREAD?RA8876

BL51 BANKED LINKER/LOCATER V6.22                                                      08/26/2015  16:38:21  PAGE 28


?PR?BTE_S0_COLOR_16BPP?RA8876                    -----    -----
  +--> ?PR?_LCD_CMDWRITE?RA8876
  +--> ?PR?LCD_DATAREAD?RA8876
  +--> ?PR?_LCD_DATAWRITE?RA8876

?PR?BTE_S1_COLOR_16BPP?RA8876                    -----    -----
  +--> ?PR?_LCD_CMDWRITE?RA8876
  +--> ?PR?LCD_DATAREAD?RA8876
  +--> ?PR?_LCD_DATAWRITE?RA8876

?PR?_BTE_S1_IMAGE_WIDTH?RA8876                   -----    -----
  +--> ?PR?_BTE_S1_MEMORY_START_ADDRESS?RA8876
  +--> ?PR?_LCD_REGISTERWRITE?RA8876

?PR?_BTE_S1_MEMORY_START_ADDRESS?RA8876          021BH    0004H
  +--> ?PR?_LCD_REGISTERWRITE?RA8876

?PR?BTE_DESTINATION_COLOR_16BPP?RA8876           -----    -----
  +--> ?PR?_BTE_S1_WINDOW_START_XY?RA8876
  +--> ?PR?_LCD_CMDWRITE?RA8876
  +--> ?PR?LCD_DATAREAD?RA8876
  +--> ?PR?_LCD_DATAWRITE?RA8876

?PR?_BTE_S1_WINDOW_START_XY?RA8876               0223H    0002H
  +--> ?PR?_LCD_REGISTERWRITE?RA8876

?PR?_BTE_DESTINATION_IMAGE_WIDTH?RA8876          -----    -----
  +--> ?PR?_BTE_S0_MEMORY_START_ADDRESS?RA8876
  +--> ?PR?_BTE_S0_IMAGE_WIDTH?RA8876
  +--> ?PR?_BTE_S0_WINDOW_START_XY?RA8876
  +--> ?PR?_BTE_DESTINATION_MEMORY_START_ADD...
  +--> ?PR?_LCD_REGISTERWRITE?RA8876

?PR?_BTE_S0_MEMORY_START_ADDRESS?RA8876          0225H    0004H
  +--> ?PR?_LCD_REGISTERWRITE?RA8876

?PR?_BTE_S0_IMAGE_WIDTH?RA8876                   -----    -----
  +--> ?PR?_LCD_REGISTERWRITE?RA8876

?PR?_BTE_S0_WINDOW_START_XY?RA8876               0223H    0002H
  +--> ?PR?_BTE_S0_MEMORY_START_ADDRESS?RA8876
  +--> ?PR?_BTE_S0_IMAGE_WIDTH?RA8876
  +--> ?PR?_LCD_REGISTERWRITE?RA8876

?PR?_BTE_DESTINATION_MEMORY_START_ADD...         0223H    0004H
  +--> ?PR?_LCD_REGISTERWRITE?RA8876

?PR?_BTE_WINDOW_SIZE?RA8876                      0223H    0002H
  +--> ?PR?_BTE_DESTINATION_WINDOW_START_XY?...
  +--> ?PR?_LCD_REGISTERWRITE?RA8876

?PR?_BTE_DESTINATION_WINDOW_START_XY?...         0225H    0002H
  +--> ?PR?_LCD_REGISTERWRITE?RA8876

?PR?_BTE_ROP_CODE?RA8876                         -----    -----
  +--> ?PR?_BTE_DESTINATION_WINDOW_START_XY?...
  +--> ?PR?_BTE_WINDOW_SIZE?RA8876
BL51 BANKED LINKER/LOCATER V6.22                                                      08/26/2015  16:38:21  PAGE 29


  +--> ?PR?_LCD_CMDWRITE?RA8876
  +--> ?PR?LCD_DATAREAD?RA8876
  +--> ?PR?_LCD_DATAWRITE?RA8876

?PR?_BTE_OPERATION_CODE?RA8876                   -----    -----
  +--> ?PR?_LCD_CMDWRITE?RA8876
  +--> ?PR?LCD_DATAREAD?RA8876
  +--> ?PR?_LCD_DATAWRITE?RA8876

?PR?BTE_ENABLE?RA8876                            -----    -----
  +--> ?PR?_LCD_CMDWRITE?RA8876
  +--> ?PR?LCD_DATAREAD?RA8876
  +--> ?PR?_LCD_DATAWRITE?RA8876

?PR?CHECK_MEM_WR_FIFO_EMPTY?RA8876               -----    -----
  +--> ?PR?LCD_STATUSREAD?RA8876

?PR?CHECK_BTE_BUSY?RA8876                        -----    -----
  +--> ?PR?LCD_STATUSREAD?RA8876

?PR?BTE_PATTERN_FILL?RA8876                      0213H    0004H
  +--> ?PR?SELECT_MAIN_WINDOW_16BPP?RA8876
  +--> ?PR?_ACTIVE_WINDOW_WH?RA8876
  +--> ?PR?_LINE_START_XY?RA8876
  +--> ?PR?START_SQUARE_FILL?RA8876
  +--> ?PR?_FOREGROUND_COLOR_65K?RA8876
  +--> ?PR?_BACKGROUND_COLOR_65K?RA8876
  +--> ?PR?CGROM_SELECT_INTERNAL_CGROM?RA8876
  +--> ?PR?FONT_SELECT_12X24_24X24?RA8876
  +--> ?PR?_GOTO_TEXT_XY?RA8876
  +--> ?CO?RA8876
  +--> ?PR?_SHOW_STRING?RA8876
  +--> ?PR?ENABLE_SFLASH_SPI?RA8876
  +--> ?PR?SELECT_SFI_1?RA8876
  +--> ?PR?SELECT_SFI_DMA_MODE?RA8876
  +--> ?PR?SELECT_SFI_24BIT_ADDRESS?RA8876
  +--> ?PR?SELECT_SFI_WAVEFORM_MODE_3?RA8876
  +--> ?PR?SELECT_SFI_8_DUMMYREAD?RA8876
  +--> ?PR?SELECT_SFI_SINGLE_MODE?RA8876
  +--> ?PR?_SFI_DMA_SOURCE_WIDTH?RA8876
  +--> ?PR?START_SFI_DMA?RA8876
  +--> ?PR?CHECK_BUSY_SFI_DMA?RA8876
  +--> ?PR?PATTERN_FORMAT_16X16?RA8876
  +--> ?PR?_CANVAS_IMAGE_START_ADDRESS?RA8876
  +--> ?PR?_ACTIVE_WINDOW_XY?RA8876
  +--> ?PR?_GOTO_PIXEL_XY?RA8876
  +--> ?PR?_SHOW_PICTURE?RA8876
  +--> ?PR?BTE_S0_COLOR_16BPP?RA8876
  +--> ?PR?_BTE_S0_MEMORY_START_ADDRESS?RA8876
  +--> ?PR?_BTE_S0_IMAGE_WIDTH?RA8876
  +--> ?PR?BTE_S1_COLOR_16BPP?RA8876
  +--> ?PR?_BTE_S1_IMAGE_WIDTH?RA8876
  +--> ?PR?BTE_DESTINATION_COLOR_16BPP?RA8876
  +--> ?PR?_BTE_DESTINATION_IMAGE_WIDTH?RA8876
  +--> ?PR?_BTE_ROP_CODE?RA8876
  +--> ?PR?_BTE_OPERATION_CODE?RA8876
  +--> ?PR?_BTE_S1_WINDOW_START_XY?RA8876
BL51 BANKED LINKER/LOCATER V6.22                                                      08/26/2015  16:38:21  PAGE 30


  +--> ?PR?_BTE_DESTINATION_WINDOW_START_XY?...
  +--> ?PR?_BTE_WINDOW_SIZE?RA8876
  +--> ?PR?BTE_ENABLE?RA8876
  +--> ?PR?CHECK_BTE_BUSY?RA8876
  +--> ?PR?_DELAY_MS?RA8876
  +--> ?PR?NEXTSTEP?RA8876

?PR?PATTERN_FORMAT_16X16?RA8876                  -----    -----
  +--> ?PR?_LCD_CMDWRITE?RA8876
  +--> ?PR?LCD_DATAREAD?RA8876
  +--> ?PR?_LCD_DATAWRITE?RA8876

?PR?BTE_COLOR_EXPANSION?RA8876                   0213H    0008H
  +--> ?PR?SELECT_MAIN_WINDOW_16BPP?RA8876
  +--> ?PR?_ACTIVE_WINDOW_WH?RA8876
  +--> ?PR?_LINE_START_XY?RA8876
  +--> ?PR?START_SQUARE_FILL?RA8876
  +--> ?PR?_FOREGROUND_COLOR_65K?RA8876
  +--> ?PR?_BACKGROUND_COLOR_65K?RA8876
  +--> ?PR?CGROM_SELECT_INTERNAL_CGROM?RA8876
  +--> ?PR?FONT_SELECT_12X24_24X24?RA8876
  +--> ?PR?_GOTO_TEXT_XY?RA8876
  +--> ?CO?RA8876
  +--> ?PR?_SHOW_STRING?RA8876
  +--> ?PR?ENABLE_SFLASH_SPI?RA8876
  +--> ?PR?SELECT_SFI_1?RA8876
  +--> ?PR?SELECT_SFI_DMA_MODE?RA8876
  +--> ?PR?SELECT_SFI_24BIT_ADDRESS?RA8876
  +--> ?PR?SELECT_SFI_WAVEFORM_MODE_3?RA8876
  +--> ?PR?SELECT_SFI_8_DUMMYREAD?RA8876
  +--> ?PR?SELECT_SFI_SINGLE_MODE?RA8876
  +--> ?PR?_SFI_DMA_SOURCE_WIDTH?RA8876
  +--> ?PR?START_SFI_DMA?RA8876
  +--> ?PR?CHECK_BUSY_SFI_DMA?RA8876
  +--> ?PR?BTE_S0_COLOR_16BPP?RA8876
  +--> ?PR?BTE_S1_COLOR_16BPP?RA8876
  +--> ?PR?BTE_DESTINATION_COLOR_16BPP?RA8876
  +--> ?PR?_BTE_DESTINATION_IMAGE_WIDTH?RA8876
  +--> ?PR?_BTE_DESTINATION_WINDOW_START_XY?...
  +--> ?PR?_BTE_WINDOW_SIZE?RA8876
  +--> ?PR?_BTE_ROP_CODE?RA8876
  +--> ?PR?_BTE_OPERATION_CODE?RA8876
  +--> ?PR?BTE_ENABLE?RA8876
  +--> ?PR?_LCD_CMDWRITE?RA8876
  +--> ?PR?_SHOW_PICTURE1?RA8876
  +--> ?PR?CHECK_MEM_WR_FIFO_EMPTY?RA8876
  +--> ?PR?CHECK_BTE_BUSY?RA8876
  +--> ?PR?NEXTSTEP?RA8876

?PR?_SHOW_PICTURE1?RA8876                        021BH    000BH
  +--> ?PR?_LCD_CMDWRITE?RA8876
  +--> ?PR?_LCD_DATAWRITE?RA8876
  +--> ?PR?CHECK_MEM_WR_FIFO_NOT_FULL?RA8876

?PR?PIP_DEMO?RA8876                              0213H    0008H
  +--> ?PR?SELECT_MAIN_WINDOW_16BPP?RA8876
  +--> ?PR?_ACTIVE_WINDOW_WH?RA8876
BL51 BANKED LINKER/LOCATER V6.22                                                      08/26/2015  16:38:21  PAGE 31


  +--> ?PR?_LINE_START_XY?RA8876
  +--> ?PR?START_SQUARE_FILL?RA8876
  +--> ?PR?_FOREGROUND_COLOR_65K?RA8876
  +--> ?PR?_BACKGROUND_COLOR_65K?RA8876
  +--> ?PR?CGROM_SELECT_INTERNAL_CGROM?RA8876
  +--> ?PR?FONT_SELECT_12X24_24X24?RA8876
  +--> ?PR?_GOTO_TEXT_XY?RA8876
  +--> ?CO?RA8876
  +--> ?PR?_SHOW_STRING?RA8876
  +--> ?PR?MEMORY_16BPP_MODE?RA8876
  +--> ?PR?_DELAY_MS?RA8876
  +--> ?PR?_CANVAS_IMAGE_START_ADDRESS?RA8876
  +--> ?PR?_ACTIVE_WINDOW_XY?RA8876
  +--> ?PR?_GOTO_PIXEL_XY?RA8876
  +--> ?PR?_LCD_CMDWRITE?RA8876
  +--> ?PR?_LCD_DATAWRITE?RA8876
  +--> ?PR?CHECK_MEM_WR_FIFO_EMPTY?RA8876
  +--> ?PR?SELECT_PIP1_WINDOW_16BPP?RA8876
  +--> ?PR?SELECT_PIP1_PARAMETER?RA8876
  +--> ?PR?_PIP_WINDOW_IMAGE_START_XY?RA8876
  +--> ?PR?_PIP_DISPLAY_START_XY?RA8876
  +--> ?PR?ENABLE_PIP1?RA8876
  +--> ?PR?SELECT_PIP2_WINDOW_16BPP?RA8876
  +--> ?PR?SELECT_PIP2_PARAMETER?RA8876
  +--> ?PR?ENABLE_PIP2?RA8876
  +--> ?PR?ENABLE_SFLASH_SPI?RA8876
  +--> ?PR?SELECT_SFI_1?RA8876
  +--> ?PR?SELECT_SFI_DMA_MODE?RA8876
  +--> ?PR?SELECT_SFI_24BIT_ADDRESS?RA8876
  +--> ?PR?SELECT_SFI_WAVEFORM_MODE_3?RA8876
  +--> ?PR?SELECT_SFI_8_DUMMYREAD?RA8876
  +--> ?PR?SELECT_SFI_SINGLE_MODE?RA8876
  +--> ?PR?_SPI_CLOCK_PERIOD?RA8876
  +--> ?PR?_SFI_DMA_DESTINATION_UPPER_LEFT_C...
  +--> ?PR?_SFI_DMA_SOURCE_WIDTH?RA8876
  +--> ?PR?_SFI_DMA_SOURCE_START_ADDRESS?RA8876
  +--> ?PR?START_SFI_DMA?RA8876
  +--> ?PR?CHECK_BUSY_SFI_DMA?RA8876
  +--> ?PR?NEXTSTEP?RA8876
  +--> ?PR?DISABLE_PIP1?RA8876
  +--> ?PR?DISABLE_PIP2?RA8876

?PR?SELECT_PIP1_WINDOW_16BPP?RA8876              -----    -----
  +--> ?PR?_LCD_CMDWRITE?RA8876
  +--> ?PR?LCD_DATAREAD?RA8876
  +--> ?PR?_LCD_DATAWRITE?RA8876

?PR?SELECT_PIP1_PARAMETER?RA8876                 -----    -----
  +--> ?PR?_LCD_CMDWRITE?RA8876
  +--> ?PR?LCD_DATAREAD?RA8876
  +--> ?PR?_LCD_DATAWRITE?RA8876

?PR?_PIP_WINDOW_IMAGE_START_XY?RA8876            021BH    0002H
  +--> ?PR?_PIP_IMAGE_START_ADDRESS?RA8876
  +--> ?PR?_PIP_IMAGE_WIDTH?RA8876
  +--> ?PR?_PIP_WINDOW_WIDTH_HEIGHT?RA8876
  +--> ?PR?_LCD_REGISTERWRITE?RA8876
BL51 BANKED LINKER/LOCATER V6.22                                                      08/26/2015  16:38:21  PAGE 32



?PR?_PIP_IMAGE_START_ADDRESS?RA8876              021DH    0004H
  +--> ?PR?_LCD_REGISTERWRITE?RA8876

?PR?_PIP_IMAGE_WIDTH?RA8876                      -----    -----
  +--> ?PR?_LCD_REGISTERWRITE?RA8876

?PR?_PIP_WINDOW_WIDTH_HEIGHT?RA8876              021DH    0002H
  +--> ?PR?_LCD_REGISTERWRITE?RA8876

?PR?ENABLE_PIP1?RA8876                           -----    -----
  +--> ?PR?_LCD_CMDWRITE?RA8876
  +--> ?PR?LCD_DATAREAD?RA8876
  +--> ?PR?_LCD_DATAWRITE?RA8876

?PR?SELECT_PIP2_WINDOW_16BPP?RA8876              -----    -----
  +--> ?PR?_LCD_CMDWRITE?RA8876
  +--> ?PR?LCD_DATAREAD?RA8876
  +--> ?PR?_LCD_DATAWRITE?RA8876

?PR?SELECT_PIP2_PARAMETER?RA8876                 -----    -----
  +--> ?PR?_PIP_DISPLAY_START_XY?RA8876
  +--> ?PR?_DELAY_MS?RA8876
  +--> ?PR?_LCD_CMDWRITE?RA8876
  +--> ?PR?LCD_DATAREAD?RA8876
  +--> ?PR?_LCD_DATAWRITE?RA8876

?PR?ENABLE_PIP2?RA8876                           -----    -----
  +--> ?PR?_LCD_CMDWRITE?RA8876
  +--> ?PR?LCD_DATAREAD?RA8876
  +--> ?PR?_LCD_DATAWRITE?RA8876

?PR?DISABLE_PIP1?RA8876                          -----    -----
  +--> ?PR?_LCD_CMDWRITE?RA8876
  +--> ?PR?LCD_DATAREAD?RA8876
  +--> ?PR?_LCD_DATAWRITE?RA8876

?PR?DISABLE_PIP2?RA8876                          -----    -----
  +--> ?PR?_LCD_CMDWRITE?RA8876
  +--> ?PR?LCD_DATAREAD?RA8876
  +--> ?PR?_LCD_DATAWRITE?RA8876

?PR?APP_DEMO_WAVEFORM?RA8876                     0213H    0010H
  +--> ?PR?SELECT_MAIN_WINDOW_16BPP?RA8876
  +--> ?PR?_ACTIVE_WINDOW_WH?RA8876
  +--> ?PR?_LINE_START_XY?RA8876
  +--> ?PR?START_SQUARE_FILL?RA8876
  +--> ?PR?_FOREGROUND_COLOR_65K?RA8876
  +--> ?PR?_BACKGROUND_COLOR_65K?RA8876
  +--> ?PR?CGROM_SELECT_INTERNAL_CGROM?RA8876
  +--> ?PR?FONT_SELECT_12X24_24X24?RA8876
  +--> ?PR?_GOTO_TEXT_XY?RA8876
  +--> ?CO?RA8876
  +--> ?PR?_SHOW_STRING?RA8876
  +--> ?PR?_CANVAS_IMAGE_START_ADDRESS?RA8876
  +--> ?PR?_LINE_END_XY?RA8876
  +--> ?PR?START_LINE?RA8876
BL51 BANKED LINKER/LOCATER V6.22                                                      08/26/2015  16:38:21  PAGE 33


  +--> ?PR?BTE_S0_COLOR_16BPP?RA8876
  +--> ?PR?_BTE_S0_WINDOW_START_XY?RA8876
  +--> ?PR?BTE_DESTINATION_COLOR_16BPP?RA8876
  +--> ?PR?_BTE_DESTINATION_IMAGE_WIDTH?RA8876
  +--> ?PR?_BTE_DESTINATION_WINDOW_START_XY?...
  +--> ?PR?_BTE_ROP_CODE?RA8876
  +--> ?PR?_BTE_OPERATION_CODE?RA8876
  +--> ?PR?BTE_ENABLE?RA8876
  +--> ?PR?CHECK_BTE_BUSY?RA8876
  +--> ?PR?_BTE_WINDOW_SIZE?RA8876
  +--> ?PR?RAND?RAND
  +--> ?PR?NEXTSTEP?RA8876

?PR?APP_DEMO_SCROLLING_TEXT?RA8876               0213H    0002H
  +--> ?PR?SELECT_MAIN_WINDOW_16BPP?RA8876
  +--> ?PR?_MAIN_WINDOW_START_XY?RA8876
  +--> ?PR?_ACTIVE_WINDOW_WH?RA8876
  +--> ?PR?_LINE_START_XY?RA8876
  +--> ?PR?START_SQUARE_FILL?RA8876
  +--> ?PR?_FOREGROUND_COLOR_65K?RA8876
  +--> ?PR?_BACKGROUND_COLOR_65K?RA8876
  +--> ?PR?CGROM_SELECT_INTERNAL_CGROM?RA8876
  +--> ?PR?FONT_SELECT_12X24_24X24?RA8876
  +--> ?PR?_GOTO_TEXT_XY?RA8876
  +--> ?CO?RA8876
  +--> ?PR?_SHOW_STRING?RA8876
  +--> ?PR?ENABLE_SFLASH_SPI?RA8876
  +--> ?PR?SELECT_SFI_1?RA8876
  +--> ?PR?SELECT_SFI_DMA_MODE?RA8876
  +--> ?PR?SELECT_SFI_24BIT_ADDRESS?RA8876
  +--> ?PR?SELECT_SFI_WAVEFORM_MODE_3?RA8876
  +--> ?PR?SELECT_SFI_8_DUMMYREAD?RA8876
  +--> ?PR?SELECT_SFI_SINGLE_MODE?RA8876
  +--> ?PR?_SPI_CLOCK_PERIOD?RA8876
  +--> ?PR?_SFI_DMA_DESTINATION_UPPER_LEFT_C...
  +--> ?PR?_SFI_DMA_SOURCE_WIDTH?RA8876
  +--> ?PR?_SFI_DMA_SOURCE_START_ADDRESS?RA8876
  +--> ?PR?START_SFI_DMA?RA8876
  +--> ?PR?CHECK_BUSY_SFI_DMA?RA8876
  +--> ?PR?BTE_S0_COLOR_16BPP?RA8876
  +--> ?PR?_BTE_S0_WINDOW_START_XY?RA8876
  +--> ?PR?BTE_DESTINATION_COLOR_16BPP?RA8876
  +--> ?PR?_BTE_DESTINATION_IMAGE_WIDTH?RA8876
  +--> ?PR?_BTE_ROP_CODE?RA8876
  +--> ?PR?_BTE_OPERATION_CODE?RA8876
  +--> ?PR?BTE_ENABLE?RA8876
  +--> ?PR?CHECK_BTE_BUSY?RA8876
  +--> ?PR?_BTE_DESTINATION_WINDOW_START_XY?...
  +--> ?PR?_BTE_WINDOW_SIZE?RA8876
  +--> ?PR?_BTE_S0_MEMORY_START_ADDRESS?RA8876
  +--> ?PR?_BTE_S0_IMAGE_WIDTH?RA8876
  +--> ?PR?NEXTSTEP?RA8876

?PR?APP_DEMO_SLIDE_FRAME_BUFFER?RA8876           0213H    0008H
  +--> ?PR?SELECT_MAIN_WINDOW_16BPP?RA8876
  +--> ?PR?_MAIN_WINDOW_START_XY?RA8876
  +--> ?PR?ENABLE_SFLASH_SPI?RA8876
BL51 BANKED LINKER/LOCATER V6.22                                                      08/26/2015  16:38:21  PAGE 34


  +--> ?PR?SELECT_SFI_1?RA8876
  +--> ?PR?SELECT_SFI_DMA_MODE?RA8876
  +--> ?PR?SELECT_SFI_24BIT_ADDRESS?RA8876
  +--> ?PR?SELECT_SFI_WAVEFORM_MODE_3?RA8876
  +--> ?PR?SELECT_SFI_8_DUMMYREAD?RA8876
  +--> ?PR?SELECT_SFI_SINGLE_MODE?RA8876
  +--> ?PR?_SPI_CLOCK_PERIOD?RA8876
  +--> ?PR?_SFI_DMA_DESTINATION_UPPER_LEFT_C...
  +--> ?PR?_SFI_DMA_SOURCE_WIDTH?RA8876
  +--> ?PR?_MAIN_IMAGE_START_ADDRESS?RA8876
  +--> ?PR?_CANVAS_IMAGE_START_ADDRESS?RA8876
  +--> ?PR?_ACTIVE_WINDOW_XY?RA8876
  +--> ?PR?_ACTIVE_WINDOW_WH?RA8876
  +--> ?PR?_LINE_START_XY?RA8876
  +--> ?PR?START_SQUARE_FILL?RA8876
  +--> ?PR?_SFI_DMA_SOURCE_START_ADDRESS?RA8876
  +--> ?PR?START_SFI_DMA?RA8876
  +--> ?PR?CHECK_BUSY_SFI_DMA?RA8876
  +--> ?PR?_BACKGROUND_COLOR_65K?RA8876
  +--> ?PR?CGROM_SELECT_INTERNAL_CGROM?RA8876
  +--> ?PR?FONT_SELECT_12X24_24X24?RA8876
  +--> ?PR?_GOTO_TEXT_XY?RA8876
  +--> ?CO?RA8876
  +--> ?PR?_SHOW_STRING?RA8876
  +--> ?PR?_DELAY_MS?RA8876
  +--> ?PR?NEXTSTEP?RA8876

?PR?APP_DEMO_MULTI_FRAME_BUFFER?RA8876           0213H    0008H
  +--> ?PR?SELECT_MAIN_WINDOW_16BPP?RA8876
  +--> ?PR?_MAIN_WINDOW_START_XY?RA8876
  +--> ?PR?ENABLE_SFLASH_SPI?RA8876
  +--> ?PR?SELECT_SFI_1?RA8876
  +--> ?PR?SELECT_SFI_DMA_MODE?RA8876
  +--> ?PR?SELECT_SFI_24BIT_ADDRESS?RA8876
  +--> ?PR?SELECT_SFI_WAVEFORM_MODE_3?RA8876
  +--> ?PR?SELECT_SFI_8_DUMMYREAD?RA8876
  +--> ?PR?SELECT_SFI_SINGLE_MODE?RA8876
  +--> ?PR?_SPI_CLOCK_PERIOD?RA8876
  +--> ?PR?_SFI_DMA_SOURCE_WIDTH?RA8876
  +--> ?PR?_ACTIVE_WINDOW_WH?RA8876
  +--> ?PR?_LINE_START_XY?RA8876
  +--> ?PR?_LINE_END_XY?RA8876
  +--> ?PR?START_SQUARE_FILL?RA8876
  +--> ?PR?_FOREGROUND_COLOR_65K?RA8876
  +--> ?PR?_BACKGROUND_COLOR_65K?RA8876
  +--> ?PR?CGROM_SELECT_INTERNAL_CGROM?RA8876
  +--> ?PR?FONT_SELECT_12X24_24X24?RA8876
  +--> ?PR?_GOTO_TEXT_XY?RA8876
  +--> ?CO?RA8876
  +--> ?PR?_SHOW_STRING?RA8876
  +--> ?PR?START_SFI_DMA?RA8876
  +--> ?PR?CHECK_BUSY_SFI_DMA?RA8876
  +--> ?PR?_DELAY_MS?RA8876
  +--> ?PR?_MAIN_IMAGE_START_ADDRESS?RA8876
  +--> ?PR?_CANVAS_IMAGE_START_ADDRESS?RA8876
  +--> ?PR?_ACTIVE_WINDOW_XY?RA8876
  +--> ?PR?_SFI_DMA_DESTINATION_UPPER_LEFT_C...
BL51 BANKED LINKER/LOCATER V6.22                                                      08/26/2015  16:38:21  PAGE 35


  +--> ?PR?NEXTSTEP?RA8876

?PR?APP_DEMO_ALPHA_BLENDING?RA8876               0213H    0008H
  +--> ?PR?SELECT_MAIN_WINDOW_16BPP?RA8876
  +--> ?PR?_ACTIVE_WINDOW_WH?RA8876
  +--> ?PR?_LINE_START_XY?RA8876
  +--> ?PR?START_SQUARE_FILL?RA8876
  +--> ?PR?_FOREGROUND_COLOR_65K?RA8876
  +--> ?PR?_BACKGROUND_COLOR_65K?RA8876
  +--> ?PR?CGROM_SELECT_INTERNAL_CGROM?RA8876
  +--> ?PR?FONT_SELECT_12X24_24X24?RA8876
  +--> ?PR?_GOTO_TEXT_XY?RA8876
  +--> ?CO?RA8876
  +--> ?PR?_SHOW_STRING?RA8876
  +--> ?PR?ENABLE_SFLASH_SPI?RA8876
  +--> ?PR?SELECT_SFI_1?RA8876
  +--> ?PR?SELECT_SFI_DMA_MODE?RA8876
  +--> ?PR?SELECT_SFI_24BIT_ADDRESS?RA8876
  +--> ?PR?SELECT_SFI_WAVEFORM_MODE_3?RA8876
  +--> ?PR?SELECT_SFI_8_DUMMYREAD?RA8876
  +--> ?PR?SELECT_SFI_SINGLE_MODE?RA8876
  +--> ?PR?_SPI_CLOCK_PERIOD?RA8876
  +--> ?PR?_CANVAS_IMAGE_START_ADDRESS?RA8876
  +--> ?PR?_SFI_DMA_SOURCE_WIDTH?RA8876
  +--> ?PR?_SFI_DMA_SOURCE_START_ADDRESS?RA8876
  +--> ?PR?START_SFI_DMA?RA8876
  +--> ?PR?CHECK_BUSY_SFI_DMA?RA8876
  +--> ?PR?BTE_DESTINATION_COLOR_16BPP?RA8876
  +--> ?PR?_BTE_DESTINATION_IMAGE_WIDTH?RA8876
  +--> ?PR?_BTE_DESTINATION_WINDOW_START_XY?...
  +--> ?PR?_BTE_WINDOW_SIZE?RA8876
  +--> ?PR?BTE_S0_COLOR_16BPP?RA8876
  +--> ?PR?_BTE_S0_WINDOW_START_XY?RA8876
  +--> ?PR?BTE_S1_COLOR_16BPP?RA8876
  +--> ?PR?_BTE_S1_IMAGE_WIDTH?RA8876
  +--> ?PR?_BTE_S1_WINDOW_START_XY?RA8876
  +--> ?PR?_BTE_ROP_CODE?RA8876
  +--> ?PR?_BTE_OPERATION_CODE?RA8876
  +--> ?PR?_BTE_ALPHA_BLENDING_EFFECT?RA8876
  +--> ?PR?BTE_ENABLE?RA8876
  +--> ?PR?_DELAY_MS?RA8876
  +--> ?PR?NEXTSTEP?RA8876

?PR?_BTE_ALPHA_BLENDING_EFFECT?RA8876            -----    -----
  +--> ?PR?_LCD_CMDWRITE?RA8876
  +--> ?PR?_LCD_DATAWRITE?RA8876



SYMBOL TABLE OF MODULE:  sd (RA8876)

  VALUE           TYPE          NAME
  ----------------------------------

  -------         MODULE        RA8876
  C:0000H         SYMBOL        _ICE_DUMMY_
  C:CEB3H         PUBLIC        _my_abs
BL51 BANKED LINKER/LOCATER V6.22                                                      08/26/2015  16:38:21  PAGE 36


  C:C93AH         PUBLIC        _Show_String
  C:D179H         PUBLIC        Power_Saving_Standby_Mode
  C:D77CH         PUBLIC        Font_Select_8x16_16x16
  C:D6E4H         PUBLIC        BTE_S0_Color_8bpp
  C:D6ABH         PUBLIC        Select_PWM1_is_Osc_Clock
  C:D412H         PUBLIC        MemRead_Down_Top_Left_Right
  C:D3FFH         PUBLIC        MemRead_Top_Down_Left_Right
  C:D3ECH         PUBLIC        MemRead_Right_Left_Top_Down
  C:D3D9H         PUBLIC        MemRead_Left_Right_Top_Down
  C:D1BAH         PUBLIC        BTE_S1_Color_8bpp
  C:C9F7H         PUBLIC        _Square_End_XY
  C:DCB4H         PUBLIC        Mask_DMA_Draw_BTE_Interrupt_Flag
  C:DB60H         PUBLIC        Disable_KeyScan_Interrupt
  D:0080H         PUBLIC        P0
  C:DCF8H         PUBLIC        Enable_ExtInterrupt_Inpur_Flag
  C:DC4EH         PUBLIC        Clear_PWM0_Interrupt_Flag
  D:0090H         PUBLIC        P1
  C:E59EH         PUBLIC        Start_Right_Up_Curve
  C:DC3DH         PUBLIC        Clear_PWM1_Interrupt_Flag
  D:00A0H         PUBLIC        P2
  D:00B0H         PUBLIC        P3
  C:E6A1H         PUBLIC        _SPI_Clock_Period
  C:E457H         PUBLIC        Reset_CPHA
  D:00C0H         PUBLIC        P4
  B:0090H.5       PUBLIC        SD_DI
  C:B60FH         PUBLIC        _Show_picture
  C:D64CH         PUBLIC        Select_PWM0_Clock_Divided_By_1
  C:D4F6H         PUBLIC        Select_Main_Window_8bpp
  C:DBB5H         PUBLIC        Enable_PWM0_Interrupt
  C:E8EEH         PUBLIC        Check_Mem_RD_FIFO_not_Empty
  D:00C8H         PUBLIC        P5
  C:D70AH         PUBLIC        BTE_Destination_Color_8bpp
  C:E215H         PUBLIC        Enable_PWM0_Inverter
  C:D65FH         PUBLIC        Select_PWM0_Clock_Divided_By_2
  C:D600H         PUBLIC        Select_PWM1_Clock_Divided_By_1
  C:DE2AH         PUBLIC        Disable_XDB7_0_PullUp
  C:DB93H         PUBLIC        Enable_PWM1_Interrupt
  C:DA1DH         PUBLIC        Host_Bus_8bit
  C:E27BH         PUBLIC        BTE_Enable
  C:E18DH         PUBLIC        Enable_PWM1_Inverter
  C:D613H         PUBLIC        Select_PWM1_Clock_Divided_By_2
  C:E5F8H         PUBLIC        Start_Circle_Square_Fill
  C:97ABH         PUBLIC        BTE_Compare
  C:CD5AH         PUBLIC        _Background_color_256
  C:CE4BH         PUBLIC        Start_SFI_DMA
  C:D672H         PUBLIC        Select_PWM0_Clock_Divided_By_4
  C:E8E6H         PUBLIC        Check_Mem_RD_FIFO_not_Full
  C:AA93H         PUBLIC        BTE_Pattern_Fill
  C:BB79H         PUBLIC        _SFI_DMA_Source_Start_Address
  C:E303H         PUBLIC        Select_SFI_Font_Mode
  C:D626H         PUBLIC        Select_PWM1_Clock_Divided_By_4
  C:D4D0H         PUBLIC        Memory_Select_Graphic_Cursor_RAM
  C:CF8AH         PUBLIC        _TP_Write_Byte
  C:E09FH         PUBLIC        Idle_VSYNC_Low
  C:D9D9H         PUBLIC        RA8876_I2CM_Enable
  C:D341H         PUBLIC        TFT_LVDS
  B:0090H.6       PUBLIC        SD_DO
BL51 BANKED LINKER/LOCATER V6.22                                                      08/26/2015  16:38:21  PAGE 37


  C:B481H         PUBLIC        _LCD_DisplayString
  C:B1FDH         PUBLIC        _TP_Scan
  C:E838H         PUBLIC        Power_Saving_Suspend_Mode
  C:CCB9H         PUBLIC        _BTE_ROP_Code
  C:D685H         PUBLIC        Select_PWM0_Clock_Divided_By_8
  C:CB54H         PUBLIC        _LCD_HSYNC_Pulse_Width
  C:DC81H         PUBLIC        Mask_I2CM_Interrupt_Flag
  C:D104H         PUBLIC        SdResponse
  C:D94DH         PUBLIC        EMTI_Flag
  C:D639H         PUBLIC        Select_PWM1_Clock_Divided_By_8
  B:0090H.4       PUBLIC        SD_CS
  C:E204H         PUBLIC        Disable_PWM0_Dead_Zone
  C:E58FH         PUBLIC        Start_Left_Up_Curve
  C:CFF3H         PUBLIC        _Line_Start_XY
  C:DC1BH         PUBLIC        Clear_KeyScan_Interrupt_Flag
  C:E558H         PUBLIC        _LCD_RegisterWrite
  D:00A8H         PUBLIC        IE
  C:8B3BH         PUBLIC        Text_Demo
  C:BD88H         PUBLIC        _SFI_DMA_Transfer_Number
  C:DAB6H         PUBLIC        Text_Mode
  C:D45EH         PUBLIC        MemWrite_Down_Top_Left_Right
  C:D44BH         PUBLIC        MemWrite_Top_Down_Left_Right
  C:D438H         PUBLIC        MemWrite_Right_Left_Top_Down
  C:D425H         PUBLIC        MemWrite_Left_Right_Top_Down
  C:C3E2H         PUBLIC        _PIP_Window_Image_Start_XY
  C:E6E7H         PUBLIC        _Set_GPIO_A_In_Out
  C:D93BH         PUBLIC        OVFI_Flag
  C:E7FCH         PUBLIC        HSCAN_R_to_L
  C:E7F0H         PUBLIC        HSCAN_L_to_R
  C:DB4FH         PUBLIC        Enable_KeyScan_Interrupt
  C:DA61H         PUBLIC        ExtInterrupt_Debounce
  C:D3A0H         PUBLIC        RGB_16b_16bpp
  C:E17CH         PUBLIC        Select_PWM0_is_GPIO_C7
  C:E16BH         PUBLIC        Select_PWM1_is_ErrorFlag
  C:C82AH         PUBLIC        _Goto_Pixel_XY
  C:E916H         PUBLIC        Check_NO_Interrupt
  C:E8FEH         PUBLIC        Check_SDRAM_Ready
  C:41B2H         PUBLIC        gImage_arrow_il
  C:E711H         PUBLIC        _Set_GPIO_C_In_Out
  C:E424H         PUBLIC        EMTIRQEN_Enable
  C:D8BDH         PUBLIC        _PIP_Image_Width
  C:DAFAH         PUBLIC        Disable_ExtInterrupt_Input
  C:D163H         PUBLIC        Enable_PLL
  C:C243H         PUBLIC        _TP_Read_XY
  C:B826H         PUBLIC        Graphic_cursor_initial
  C:E72DH         PUBLIC        _Set_GPIO_D_In_Out
  C:E6BDH         PUBLIC        _Font_Line_Distance
  C:BCEDH         PUBLIC        _Line_End_XY
  C:E749H         PUBLIC        _Set_GPIO_E_In_Out
  C:E435H         PUBLIC        Reset_CPOL
  C:DC92H         PUBLIC        Mask_Vsync_Interrupt_Flag
  C:E765H         PUBLIC        _Set_GPIO_F_In_Out
  C:D756H         PUBLIC        Font_Select_UserDefine_Mode
  C:E259H         PUBLIC        Start_PWM0
  C:CA5BH         PUBLIC        _Ellipse_Radius_RxRy
  C:E562H         PUBLIC        Start_Triangle_Fill
  C:E7CCH         PUBLIC        Display_OFF
BL51 BANKED LINKER/LOCATER V6.22                                                      08/26/2015  16:38:21  PAGE 38


  C:1A32H         PUBLIC        f1
  C:E1D1H         PUBLIC        Start_PWM1
  C:E814H         PUBLIC        VSCAN_B_to_T
  C:E808H         PUBLIC        VSCAN_T_to_B
  C:DDC4H         PUBLIC        Enable_XDB7_0_PullUp
  C:26B2H         PUBLIC        f2
  C:E413H         PUBLIC        OVFIRQEN_Enable
  C:D555H         PUBLIC        Select_PIP1_Window_8bpp
  C:3332H         PUBLIC        f3
  D:00B8H         PUBLIC        IP
  C:E65BH         PUBLIC        _LCD_VSYNC_Pulse_Width
  C:D51CH         PUBLIC        Select_PIP2_Window_8bpp
  C:D4E3H         PUBLIC        Memory_Select_Color_Palette_RAM
  X:0000H         PUBLIC        DATA
  C:D4BDH         PUBLIC        Memory_Select_SDRAM
  C:E61BH         PUBLIC        Check_Mem_WR_FIFO_not_Full
  C:C7AEH         PUBLIC        RA8876_SDRAM_initail
  C:E953H         PUBLIC        RA8876_I2CM_Read_With_Nack
  C:C442H         PUBLIC        Start_Circle_Square
  C:BAF9H         PUBLIC        _LCD_Clear
  C:BD1FH         PUBLIC        _SFI_DMA_Destination_Start_Address
  C:C2E0H         PUBLIC        _Background_color_16M
  C:E05BH         PUBLIC        Idle_PDAT_Low
  C:D917H         PUBLIC        Rx_FIFO_Empty_Flag
  C:C531H         PUBLIC        _BTE_S0_Window_Start_XY
  C:E1F3H         PUBLIC        Enable_PWM0_Dead_Zone
  C:E039H         PUBLIC        Idle_PCLK_Low
  C:E844H         PUBLIC        Power_Saving_Sleep_Mode
  C:CC4BH         PUBLIC        _BTE_S1_Window_Start_XY
  C:D8F3H         PUBLIC        Tx_FIFO_Empty_Flag
  C:E3ADH         PUBLIC        SPI_Master_FIFO_Data_Get
  C:DBE8H         PUBLIC        Clear_ExtInterrupt_Input_Flag
  C:C1A4H         PUBLIC        mono_Demo
  C:CD2DH         PUBLIC        _Foreground_color_256
  C:E92EH         PUBLIC        Check_BTE_Busy
  C:E0F4H         PUBLIC        Disable_Text_Cursor
  C:DEB2H         PUBLIC        XPDAT9_Set_KOUT3
  C:D9A6H         PUBLIC        RA8876_WakeUp
  X:0200H         PUBLIC        CMD_RDX
  X:0201H         PUBLIC        xfac
  C:E15AH         PUBLIC        Memory_Linear_Mode
  C:D471H         PUBLIC        ExtInterrupt_Input_Low_Level_Trigger
  D:00D8H         PUBLIC        CCON
  X:0205H         PUBLIC        CMD_RDY
  X:0206H         PUBLIC        yfac
  C:B9EAH         PUBLIC        _SdReadBlock
  C:8EA0H         PUBLIC        Geometric
  C:D905H         PUBLIC        Tx_FIFO_Full_Flag
  C:DCD6H         PUBLIC        Mask_PWM0_Interrupt_Flag
  C:9A47H         PUBLIC        App_Demo_Scrolling_Text
  C:E369H         PUBLIC        Select_SFI_0_DummyRead
  C:DCC5H         PUBLIC        Mask_PWM1_Interrupt_Flag
  C:DAE9H         PUBLIC        Enable_ExtInterrupt_Input
  C:B549H         PUBLIC        main
  C:CF3AH         PUBLIC        Font_Select_12x24_24x24
  C:CCD6H         PUBLIC        _BTE_Destination_Window_Start_XY
  C:E571H         PUBLIC        Start_Circle_or_Ellipse_Fill
BL51 BANKED LINKER/LOCATER V6.22                                                      08/26/2015  16:38:21  PAGE 39


  C:E93DH         PUBLIC        _Set_Graphic_Cursor_Color_1
  C:DF29H         PUBLIC        XPDAT0_Set_GPIO_D0
  C:D238H         PUBLIC        GTFont_Select_GT21L16TW_GT21H16T1W
  C:D78FH         PUBLIC        Font_Select_16x32_32x32
  C:D743H         PUBLIC        Select_SFI_Dual_Mode0
  C:E67EH         PUBLIC        _Set_Graphic_Cursor_Color_2
  C:DA3FH         PUBLIC        Interrupt_Active_Low
  C:E79BH         PUBLIC        Numbers_of_Key_Hit
  C:BDF1H         PUBLIC        _CGRAM_Start_address
  C:E39CH         PUBLIC        Select_SFI_Dual_Mode1
  C:CDDEH         PUBLIC        _PIP_Display_Start_XY
  C:DF07H         PUBLIC        XPDAT1_Set_GPIO_D1
  C:42B2H         PUBLIC        gImage_pen_il
  C:E248H         PUBLIC        One_Shot_PWM0
  C:CA29H         PUBLIC        _Ellipse_Center_XY
  C:DFC2H         PUBLIC        HSYNC_High_Active
  C:DAA5H         PUBLIC        Graphic_Mode
  C:E468H         PUBLIC        Set_CPHA
  C:E1C0H         PUBLIC        One_Shot_PWM1
  C:DA0CH         PUBLIC        Disable_SFlash_SPI
  C:D9C8H         PUBLIC        Key_Scan_Disable
  C:3FB2H         PUBLIC        gImage_busy_im
  C:C56AH         PUBLIC        _SFI_DMA_Destination_Upper_Left_Corner
  C:E006H         PUBLIC        DE_High_Active
  C:E94EH         PUBLIC        RA8876_I2CM_Read_With_Ack
  C:E2BFH         PUBLIC        BTE_S0_Color_24bpp
  C:D04BH         PUBLIC        _Set_Timer0_Compare_Buffer
  C:C5AAH         PUBLIC        _Circle_Center_XY
  C:C234H         PUBLIC        Start_Triangle
  C:E3F1H         PUBLIC        nSS_Inactive
  C:D71DH         PUBLIC        Select_SFI_8_DummyRead
  C:D1E4H         PUBLIC        BTE_S1_Color_24bpp
  C:D6F7H         PUBLIC        BTE_S0_Color_16bpp
  C:D07FH         PUBLIC        _Set_Timer1_Compare_Buffer
  C:E26AH         PUBLIC        Stop_PWM0
  C:C37BH         PUBLIC        _LCD_Horizontal_Non_Display
  C:D497H         PUBLIC        ExtInterrupt_Input_Falling_Edge_Trigger
  B:00B0H.1       PUBLIC        TCLK
  C:C741H         PUBLIC        LCD_DataRead
  C:D95FH         PUBLIC        RA8876_I2CM_Check_Slave_ACK
  C:D1CFH         PUBLIC        BTE_S1_Color_16bpp
  C:E1E2H         PUBLIC        Stop_PWM1
  C:DEE5H         PUBLIC        XPDAT2_Set_GPIO_D6
  B:00B0H.0       PUBLIC        TDIN
  C:AD6DH         PUBLIC        Display_JPG_SDCARD
  C:D8ABH         PUBLIC        _Main_Image_Width
  C:DEC3H         PUBLIC        XPDAT8_Set_GPIO_D2
  C:DCE7H         PUBLIC        Enable_Resume_Interrupt_Flag
  C:DCA3H         PUBLIC        Mask_KeyScan_Interrupt_Flag
  C:E4F0H         PUBLIC        Font_90_degree
  C:DFA0H         PUBLIC        Select_Main_Window_24bpp
  C:DEA1H         PUBLIC        XPDAT9_Set_GPIO_D3
  C:D354H         PUBLIC        RGB_8b_8bpp
  C:E2D0H         PUBLIC        BTE_Destination_Color_24bpp
  C:D509H         PUBLIC        Select_Main_Window_16bpp
  C:DF5CH         PUBLIC        Disable_PIP1
  D:0098H         PUBLIC        SCON
BL51 BANKED LINKER/LOCATER V6.22                                                      08/26/2015  16:38:21  PAGE 40


  C:C102H         PUBLIC        Load_Drow_Dialog
  X:020AH         PUBLIC        xoff
  C:B6CAH         PUBLIC        _SdWriteBlock
  C:9F0BH         PUBLIC        gray
  C:CFC5H         PUBLIC        _Delay10ms
  C:CD00H         PUBLIC        _S1_Constant_color_256
  C:D0BAH         PUBLIC        BTE_Destination_Color_16bpp
  C:CBBDH         PUBLIC        _Goto_Text_XY
  C:E0E3H         PUBLIC        Enable_Text_Cursor
  C:E7E4H         PUBLIC        Color_Bar_OFF
  C:DF7EH         PUBLIC        Disable_PIP2
  C:DA2EH         PUBLIC        Host_Bus_16bit
  D:0088H         PUBLIC        TCON
  X:020CH         PUBLIC        yoff
  C:D886H         PUBLIC        SdRead
  C:B3BEH         PUBLIC        _Show_picture1
  C:C861H         PUBLIC        _BTE_Window_Size
  C:E543H         PUBLIC        PDATA_Set_BGR
  C:E63FH         PUBLIC        PDATA_Set_BRG
  C:E533H         PUBLIC        PDATA_Set_GBR
  C:E631H         PUBLIC        PDATA_Set_GRB
  C:E623H         PUBLIC        PDATA_Set_RBG
  C:E820H         PUBLIC        PDATA_Set_RGB
  C:DF3AH         PUBLIC        XPDAT0_Set_KIN1
  C:0662H         PUBLIC        ASCII_Table
  C:91E8H         PUBLIC        App_Demo_Waveform
  C:E2E1H         PUBLIC        Select_SFI_0
  C:CB8CH         PUBLIC        _Graphic_Cursor_XY
  C:E116H         PUBLIC        Disable_Text_Cursor_Blinking
  C:E4ACH         PUBLIC        Disable_Font_Alignment
  C:E2F2H         PUBLIC        Select_SFI_1
  C:E2AEH         PUBLIC        Pattern_Format_16X16
  C:C0A6H         PUBLIC        _Goto_Linear_Addr
  C:DFE4H         PUBLIC        VSYNC_High_Active
  C:DF18H         PUBLIC        XPDAT1_Set_KIN2
  C:DA83H         PUBLIC        LVDS_Format1
  C:B2DFH         PUBLIC        DMA_Demo
  C:C292H         PUBLIC        _Foreground_color_16M
  C:BF83H         PUBLIC        _BTE_S0_Memory_Start_Address
  C:DA94H         PUBLIC        LVDS_Format2
  C:C655H         PUBLIC        LCD_StatusRead
  C:E512H         PUBLIC        Key_Scan_Wakeup_Function_Enable
  C:D133H         PUBLIC        _SPI_Master_FIFO_Data_Put
  C:BFE4H         PUBLIC        _BTE_S1_Memory_Start_Address
  C:DEF6H         PUBLIC        XPDAT2_Set_KIN4
  C:E87BH         PUBLIC        Read_Interrupt_status
  C:CB10H         PUBLIC        CGROM_Select_Internal_CGROM
  C:BEF8H         PUBLIC        _Active_Window_WH
  C:D11BH         PUBLIC        _LCD_Vertical_Non_Display
  C:DD3CH         PUBLIC        Enable_DMA_Draw_BTE_Interrupt_Flag
  B:00B0H.3       PUBLIC        DOUT
  C:E446H         PUBLIC        Set_CPOL
  C:E3BEH         PUBLIC        Mask_SPI_Master_Interrupt_Flag
  C:CFB6H         PUBLIC        Start_Circle_or_Ellipse
  C:DE19H         PUBLIC        Disable_XDB15_8_PullUp
  C:D9FBH         PUBLIC        Enable_SFlash_SPI
  C:D9B7H         PUBLIC        Key_Scan_Enable
BL51 BANKED LINKER/LOCATER V6.22                                                      08/26/2015  16:38:21  PAGE 41


  C:E8F6H         PUBLIC        Check_2D_Busy
  C:E958H         PUBLIC        RA8876_I2CM_Write_With_Start
  C:E0D2H         PUBLIC        Disable_Graphic_Cursor
  C:C714H         PUBLIC        _LCD_DataWrite
  C:CFFDH         PUBLIC        NextStep
  C:D83AH         PUBLIC        Font_Height_X1
  C:E3CFH         PUBLIC        Select_nSS_drive_on_xnsfcs0
  C:E5E9H         PUBLIC        Start_Right_Down_Curve_Fill
  C:DED4H         PUBLIC        XPDAT8_Set_KIN3
  C:C45CH         PUBLIC        _Background_color_65k
  C:D84DH         PUBLIC        Font_Height_X2
  C:E3E0H         PUBLIC        Select_nSS_drive_on_xnsfcs1
  C:C045H         PUBLIC        _BTE_Destination_Memory_Start_Address
  C:D5C7H         PUBLIC        Memory_8bpp_Mode
  C:B8C8H         PUBLIC        RA8876_initial
  B:00B0H.5       PUBLIC        next
  C:D860H         PUBLIC        Font_Height_X3
  C:E314H         PUBLIC        Select_SFI_DMA_Mode
  C:DAD8H         PUBLIC        Disable_Resume_Interrupt
  C:D0CDH         PUBLIC        _RA8876_I2CM_Clock_Prescale
  C:CEEBH         PUBLIC        _Background_RGB
  C:D873H         PUBLIC        Font_Height_X4
  C:40B2H         PUBLIC        gImage_no_im
  C:E85CH         PUBLIC        Power_Normal_Mode
  C:E523H         PUBLIC        Power_Saving_Status
  C:D0EEH         PUBLIC        _SdWrite
  C:E78EH         PUBLIC        RA8876_I2CM_Arbitration
  C:D20EH         PUBLIC        BTE_S1_Color_8bit_Alpha
  C:DF4BH         PUBLIC        Enable_PIP1
  C:DC70H         PUBLIC        Mask_ExtInterrupt_Input_Flag
  C:AEB1H         PUBLIC        _TP_Read_XY2
  C:D57BH         PUBLIC        Select_PIP1_Window_24bpp
  C:DF6DH         PUBLIC        Enable_PIP2
  D:00E0H         PUBLIC        ACC
  C:E4CEH         PUBLIC        Font_Background_select_Color
  C:D542H         PUBLIC        Select_PIP2_Window_24bpp
  C:D568H         PUBLIC        Select_PIP1_Window_16bpp
  C:DD09H         PUBLIC        Enable_I2CM_Interrupt_Flag
  C:E8C3H         PUBLIC        Read_Key_Strobe_Data_0
  C:E6CBH         PUBLIC        _Set_Font_to_Font_Width
  C:E4BDH         PUBLIC        Font_Background_select_Transparency
  C:E105H         PUBLIC        Enable_Text_Cursor_Blinking
  C:D52FH         PUBLIC        Select_PIP2_Window_16bpp
  C:E8CCH         PUBLIC        Read_Key_Strobe_Data_1
  C:E49BH         PUBLIC        Enable_Font_Alignment
  C:D8CFH         PUBLIC        _Canvas_image_width
  C:E08EH         PUBLIC        Idle_HSYNC_High
  C:D3B3H         PUBLIC        RGB_16b_24bpp_mode1
  C:E8D5H         PUBLIC        Read_Key_Strobe_Data_2
  C:D3C6H         PUBLIC        RGB_16b_24bpp_mode2
  C:A52DH         PUBLIC        App_Demo_slide_frame_buffer
  C:E347H         PUBLIC        Select_SFI_Waveform_Mode_0
  C:CD87H         PUBLIC        _S1_Constant_color_16M
  C:E5BCH         PUBLIC        Start_Left_Down_Curve_Fill
  C:E028H         PUBLIC        Idle_DE_High
  C:E95DH         PUBLIC        RA8876_I2CM_Write
  C:BF22H         PUBLIC        _PIP_Image_Start_Address
BL51 BANKED LINKER/LOCATER V6.22                                                      08/26/2015  16:38:21  PAGE 42


  C:E7B4H         PUBLIC        PCLK_Falling
  C:DB82H         PUBLIC        Disable_DMA_Draw_BTE_Interrupt
  C:BBE2H         PUBLIC        SdInit
  C:C897H         PUBLIC        _Active_Window_XY
  C:D995H         PUBLIC        RA8876_Sleep
  C:A719H         PUBLIC        _LCD_DrawLine
  C:C8DDH         PUBLIC        _SFI_DMA_Source_Width
  C:E358H         PUBLIC        Select_SFI_Waveform_Mode_3
  C:E82CH         PUBLIC        PDATA_IDLE_STATE
  C:DE90H         PUBLIC        XPDAT16_Set_KOUT1
  C:DDB3H         PUBLIC        Enable_XDB15_8_PullUp
  C:CC37H         PUBLIC        Start_Square_Fill
  C:E0C1H         PUBLIC        Enable_Graphic_Cursor
  C:DBD7H         PUBLIC        Clear_Resume_Interrupt_Flag
  C:840FH         PUBLIC        PIP_Demo
  C:D2E0H         PUBLIC        _BTE_Operation_Code
  C:DE6EH         PUBLIC        XPDAT17_Set_KOUT2
  B:00B0H.6       PUBLIC        c86
  C:CC8CH         PUBLIC        _LCD_DrawPoint
  B:0090H.7       PUBLIC        SD_CLK
  C:DD1AH         PUBLIC        Enable_Vsync_Interrupt_Flag
  C:C63FH         PUBLIC        _delay_ms
  C:D1F9H         PUBLIC        BTE_S1_Color_Constant
  C:DE08H         PUBLIC        Disable_GPIOC_PullUp
  C:CBE7H         PUBLIC        _Circle_Radius_R
  C:DE4CH         PUBLIC        XPDAT18_Set_KOUT4
  C:DDF7H         PUBLIC        Disable_GPIOD_PullUp
  C:DAC7H         PUBLIC        Enable_Resume_Interrupt
  C:E402H         PUBLIC        nSS_Active
  C:E38BH         PUBLIC        Select_SFI_Single_Mode
  C:DDE6H         PUBLIC        Disable_GPIOE_PullUp
  C:E884H         PUBLIC        RA8876_I2CM_Receiver_Data
  C:E5ADH         PUBLIC        Start_Right_Down_Curve
  C:DDD5H         PUBLIC        Disable_GPIOF_PullUp
  B:0090H.3       PUBLIC        rd
  B:0090H.0       PUBLIC        cs
  C:E88DH         PUBLIC        Read_GPIO_A_7_0
  C:E48AH         PUBLIC        Clear_EMTI_Flag
  C:E926H         PUBLIC        Check_Busy_Draw
  C:1832H         PUBLIC        pattern16x16_16bpp
  C:C17CH         PUBLIC        _LCD_CmdWrite
  C:D899H         PUBLIC        RA8876_HW_Reset
  C:E944H         PUBLIC        LCD_WriteRAM_Prepare
  C:E896H         PUBLIC        Read_GPIO_B_7_0
  C:E685H         PUBLIC        _Set_Timer0_Dead_Zone_Length
  C:E0B0H         PUBLIC        Idle_VSYNC_High
  C:E7C0H         PUBLIC        Display_ON
  C:E89FH         PUBLIC        Read_GPIO_C_7_0
  C:E336H         PUBLIC        Select_SFI_32bit_Address
  C:E29DH         PUBLIC        Pattern_Format_8X8
  C:DB1CH         PUBLIC        Disable_I2CM_Interrupt
  C:A121H         PUBLIC        BTE_Color_Expansion
  C:E8A8H         PUBLIC        Read_GPIO_D_7_0
  C:E325H         PUBLIC        Select_SFI_24bit_Address
  C:E138H         PUBLIC        Select_Read_Data_Position
  B:00B0H.7       PUBLIC        rst
  C:E607H         PUBLIC        _delay_us
BL51 BANKED LINKER/LOCATER V6.22                                                      08/26/2015  16:38:21  PAGE 43


  C:E8B1H         PUBLIC        Read_GPIO_E_7_0
  C:D2CBH         PUBLIC        GTFont_Select_GT22L16A1Y
  C:DFB1H         PUBLIC        HSYNC_Low_Active
  C:DC2CH         PUBLIC        Clear_DMA_Draw_BTE_Interrupt_Flag
  C:E90EH         PUBLIC        Check_Power_is_Saving
  C:A32DH         PUBLIC        App_Demo_Alpha_Blending
  C:E8BAH         PUBLIC        Read_GPIO_F_7_0
  C:C5E0H         PUBLIC        _Foreground_color_65k
  C:E479H         PUBLIC        Clear_OVFI_Flag
  C:E37AH         PUBLIC        Select_SFI_24_DummyRead
  C:E237H         PUBLIC        Auto_Reload_PWM0
  C:D4AAH         PUBLIC        ExtInterrupt_Input_Rising_Edge_Trigger
  C:E906H         PUBLIC        Check_Power_is_Normal
  C:D28CH         PUBLIC        GTFont_Select_GT23L32S4W_GT23H32S4W
  C:D730H         PUBLIC        Select_SFI_16_DummyRead
  C:E1AFH         PUBLIC        Auto_Reload_PWM1
  C:DFF5H         PUBLIC        DE_Low_Active
  C:E781H         PUBLIC        Check_Busy_SFI_DMA
  C:CEC9H         PUBLIC        _Foreground_RGB
  C:E6AFH         PUBLIC        _Set_GTFont_Decoder
  C:D1A5H         PUBLIC        _Set_PWM_Prescaler_1_to_256
  C:E693H         PUBLIC        _BTE_Alpha_Blending_Effect
  C:DB71H         PUBLIC        Enable_DMA_Draw_BTE_Interrupt
  C:DD5EH         PUBLIC        Enable_PWM0_Interrupt_Flag
  C:D37AH         PUBLIC        RGB_8b_24bpp
  C:D2A1H         PUBLIC        GTFont_Select_GT20L24F6Y
  C:CABFH         PUBLIC        _SFI_DMA_Transfer_Width_Height
  C:D6D1H         PUBLIC        Select_PWM0_is_Core_Clock
  C:E580H         PUBLIC        Start_Left_Down_Curve
  C:DE7FH         PUBLIC        XPDAT16_Set_GPIO_D4
  C:DD4DH         PUBLIC        Enable_PWM1_Interrupt_Flag
  C:D38DH         PUBLIC        RGB_16b_8bpp
  C:D367H         PUBLIC        RGB_8b_16bpp
  B:00B0H.2       PUBLIC        PEN
  C:D262H         PUBLIC        GTFont_Select_GT23L24T3Y_GT23H24T3Y
  C:D769H         PUBLIC        CGROM_Select_Genitop_FontROM
  C:D929H         PUBLIC        Rx_FIFO_full_flag
  C:BC55H         PUBLIC        _Canvas_Image_Start_address
  C:DB3EH         PUBLIC        Disable_Vsync_Interrupt
  C:CF6CH         PUBLIC        RA8876_SW_Reset
  C:A900H         PUBLIC        _TP_Read_XOY
  C:C961H         PUBLIC        _LCD_SetCursor
  C:DE5DH         PUBLIC        XPDAT17_Set_GPIO_D5
  C:E8DEH         PUBLIC        Check_Mem_WR_FIFO_Empty
  C:CF0DH         PUBLIC        _Delay100ms
  C:DDA2H         PUBLIC        Enable_GPIOC_PullUp
  B:0090H.1       PUBLIC        rs
  C:94CDH         PUBLIC        TPTEST
  C:87C8H         PUBLIC        App_Demo_multi_frame_buffer
  C:D7EEH         PUBLIC        Font_Width_X1
  C:C6BAH         PUBLIC        Start_Square
  C:DD91H         PUBLIC        Enable_GPIOD_PullUp
  C:E6F5H         PUBLIC        _Write_GPIO_A_7_0
  C:E949H         PUBLIC        RA8876_I2CM_Stop
  C:D801H         PUBLIC        Font_Width_X2
  C:E669H         PUBLIC        _Blinking_Time_Frames
  C:CE08H         PUBLIC        _PIP_Window_Width_Height
BL51 BANKED LINKER/LOCATER V6.22                                                      08/26/2015  16:38:21  PAGE 44


  C:C4F0H         PUBLIC        _Main_Window_Start_XY
  C:BA75H         PUBLIC        _LCD_HorizontalWidth_VerticalHeight
  C:DF8FH         PUBLIC        Select_PIP1_Parameter
  C:DE3BH         PUBLIC        XPDAT18_Set_GPIO_D7
  C:DD80H         PUBLIC        Enable_GPIOE_PullUp
  C:DBF9H         PUBLIC        Clear_I2CM_Interrupt_Flag
  C:43B2H         PUBLIC        pic_80x80
  C:C496H         PUBLIC        _TP_Read_AD
  C:E501H         PUBLIC        Long_Key_enable
  C:D277H         PUBLIC        GTFont_Select_GT23L24M1Z
  C:D814H         PUBLIC        Font_Width_X3
  C:D031H         PUBLIC        _Text_Cursor_H_V
  C:CB23H         PUBLIC        _LCD_HSYNC_Start_Position
  C:C80CH         PUBLIC        Select_PIP2_Parameter
  C:DD6FH         PUBLIC        Enable_GPIOF_PullUp
  C:E71FH         PUBLIC        _Write_GPIO_C_7_0
  C:D2B6H         PUBLIC        GTFont_Select_GT21L24S1W
  C:D827H         PUBLIC        Font_Width_X4
  C:D8E1H         PUBLIC        _BTE_S0_Image_Width
  C:D6BEH         PUBLIC        Select_PWM0
  C:DFD3H         PUBLIC        VSYNC_Low_Active
  B:0090H.2       PUBLIC        wr
  B:00B0H.4       PUBLIC        TCS
  C:E73BH         PUBLIC        _Write_GPIO_D_7_0
  C:CF5AH         PUBLIC        _BTE_S1_Image_Width
  C:D698H         PUBLIC        Select_PWM1
  C:E127H         PUBLIC        Select_Write_Data_Position
  C:BE62H         PUBLIC        _Main_Image_Start_Address
  C:AC01H         PUBLIC        RA8876_PLL_Initial
  X:020EH         PUBLIC        touchtype
  C:E757H         PUBLIC        _Write_GPIO_E_7_0
  C:E5DAH         PUBLIC        Start_Right_Up_Curve_Fill
  C:DB0BH         PUBLIC        Enable_I2CM_Interrupt
  C:E773H         PUBLIC        _Write_GPIO_F_7_0
  C:E703H         PUBLIC        _Write_GPIO_B_7_4
  C:E867H         PUBLIC        _Triangle_Point1_XY
  C:D065H         PUBLIC        _Set_Timer0_Count_Buffer
  C:C993H         PUBLIC        _Triangle_Point2_XY
  C:E06CH         PUBLIC        Idle_PDAT_High
  C:C6C9H         PUBLIC        _S1_Constant_color_65k
  C:D099H         PUBLIC        _Set_Timer1_Count_Buffer
  C:C9C5H         PUBLIC        _Triangle_Point3_XY
  C:E04AH         PUBLIC        Idle_PCLK_High
  C:DD2BH         PUBLIC        Enable_KeyScan_Interrupt_Flag
  C:CE83H         PUBLIC        _LCD_SetPoint
  C:AFE2H         PUBLIC        _LCD_PutChar
  C:D24DH         PUBLIC        GTFont_Select_GT23L16U2W
  C:CA8DH         PUBLIC        _Circle_Square_Radius_RxRy
  C:D5EDH         PUBLIC        Memory_24bpp_Mode
  C:D2F4H         PUBLIC        _Long_Key_Timing_Adjustment
  C:D971H         PUBLIC        RA8876_I2CM_Bus_Busy
  C:C79CH         PUBLIC        _BTE_Destination_Image_Width
  C:D5DAH         PUBLIC        Memory_16bpp_Mode
  C:DA72H         PUBLIC        ExtInterrupt_Nodebounce
  C:D7A2H         PUBLIC        Internal_CGROM_Select_ISOIEC8859_1
  C:DC0AH         PUBLIC        Clear_Vsync_Interrupt_Flag
  C:D983H         PUBLIC        RA8876_I2CM_transmit_Progress
BL51 BANKED LINKER/LOCATER V6.22                                                      08/26/2015  16:38:21  PAGE 45


  C:D7B5H         PUBLIC        Internal_CGROM_Select_ISOIEC8859_2
  C:DBC6H         PUBLIC        Disable_PWM0_Interrupt
  C:D484H         PUBLIC        ExtInterrupt_Input_High_Level_Trigger
  C:75B2H         PUBLIC        TP_Adjust
  C:E6D9H         PUBLIC        _RA8876_I2CM_Transmit_Data
  C:D7C8H         PUBLIC        Internal_CGROM_Select_ISOIEC8859_3
  C:E226H         PUBLIC        Disable_PWM0_Inverter
  C:DBA4H         PUBLIC        Disable_PWM1_Interrupt
  C:D7DBH         PUBLIC        Internal_CGROM_Select_ISOIEC8859_4
  C:E28CH         PUBLIC        BTE_Disable
  C:E19EH         PUBLIC        Disable_PWM1_Inverter
  C:DC5FH         PUBLIC        Mask_Resume_Interrupt_Flag
  C:E91EH         PUBLIC        Check_Interrupt_Occur
  C:D223H         PUBLIC        BTE_S1_Color_16bit_Alpha
  C:DB2DH         PUBLIC        Enable_Vsync_Interrupt
  C:E149H         PUBLIC        Memory_XY_Mode
  C:E64DH         PUBLIC        _LCD_VSYNC_Start_Position
  C:E7D8H         PUBLIC        Color_Bar_ON
  C:DA50H         PUBLIC        Interrupt_Active_High
  C:D308H         PUBLIC        TFT_24bit
  C:B100H         PUBLIC        _TP_Drow_Touch_Point
  X:020FH         PUBLIC        x
  C:E5CBH         PUBLIC        Start_Left_Up_Curve_Fill
  C:D9EAH         PUBLIC        RA8876_I2CM_Disable
  C:D32EH         PUBLIC        TFT_16bit
  X:0211H         PUBLIC        y
  C:D14BH         PUBLIC        _Key_Scan_Freg
  C:E871H         PUBLIC        _Square_Start_XY
  C:CDB7H         PUBLIC        _FAST_Clear
  C:D18FH         PUBLIC        Text_cursor_initial
  C:E4DFH         PUBLIC        Font_0_degree
  C:D31BH         PUBLIC        TFT_18bit
  C:D58EH         PUBLIC        Select_Graphic_Cursor_1
  D:00D0H         PUBLIC        PSW
  C:CE5CH         PUBLIC        _SdCommand
  C:C91DH         PUBLIC        Start_Line
  C:D01EH         PUBLIC        Select_Graphic_Cursor_2
  C:E07DH         PUBLIC        Idle_HSYNC_Low
  C:E7A8H         PUBLIC        PCLK_Rising
  C:D5A1H         PUBLIC        Select_Graphic_Cursor_3
  C:D5B4H         PUBLIC        Select_Graphic_Cursor_4
  C:E017H         PUBLIC        Idle_DE_Low
  C:E936H         PUBLIC        _LCD_RegisterRead
  -------         PROC          _DELAY_US
  D:0006H         SYMBOL        i
  C:E607H         LINE#         885
  C:E607H         LINE#         886
  C:E607H         LINE#         888
  C:E611H         LINE#         889
  C:E612H         LINE#         890
  C:E614H         LINE#         892
  -------         ENDPROC       _DELAY_US
  C:C637H         SYMBOL        L?1099
  C:C63BH         SYMBOL        L?1100
  -------         PROC          L?1098
  -------         ENDPROC       L?1098
  C:C637H         SYMBOL        L?1099
BL51 BANKED LINKER/LOCATER V6.22                                                      08/26/2015  16:38:21  PAGE 46


  C:C63BH         SYMBOL        L?1100
  -------         PROC          _DELAY_MS
  D:0006H         SYMBOL        i
  -------         DO            
  D:0005H         SYMBOL        j
  -------         ENDDO         
  C:C63FH         LINE#         894
  C:C63FH         LINE#         895
  C:C63FH         LINE#         896
  C:C649H         LINE#         897
  C:C654H         LINE#         898
  -------         ENDPROC       _DELAY_MS
  -------         PROC          _DELAY10MS
  X:029CH         SYMBOL        i
  C:CFC5H         LINE#         901
  C:CFCDH         LINE#         902
  C:CFDBH         LINE#         903
  C:CFE0H         LINE#         904
  -------         ENDPROC       _DELAY10MS
  -------         PROC          _DELAY100MS
  X:0223H         SYMBOL        i
  C:CF0DH         LINE#         906
  C:CF15H         LINE#         907
  C:CF23H         LINE#         908
  C:CF2CH         LINE#         909
  -------         ENDPROC       _DELAY100MS
  -------         PROC          NEXTSTEP
  C:CFFDH         LINE#         911
  C:CFFDH         LINE#         912
  C:CFFDH         LINE#         913
  C:D000H         LINE#         914
  C:D000H         LINE#         915
  C:D007H         LINE#         916
  C:D009H         LINE#         917
  C:D00CH         LINE#         918
  C:D013H         LINE#         919
  C:D016H         LINE#         920
  -------         ENDPROC       NEXTSTEP
  C:C154H         SYMBOL        L?1089
  -------         PROC          L?1088
  -------         ENDPROC       L?1088
  C:C154H         SYMBOL        L?1089
  -------         PROC          _LCD_CMDWRITE
  D:0007H         SYMBOL        Cmd
  C:C17CH         LINE#         923
  C:C17CH         LINE#         924
  C:C17FH         LINE#         925
  C:C17FH         LINE#         926
  C:C181H         LINE#         927
  C:C183H         LINE#         928
  C:C185H         LINE#         930
  C:C187H         LINE#         931
  C:C189H         LINE#         932
  C:C18BH         LINE#         933
  C:C18DH         LINE#         935
  C:C190H         LINE#         936
  C:C192H         LINE#         937
BL51 BANKED LINKER/LOCATER V6.22                                                      08/26/2015  16:38:21  PAGE 47


  C:C193H         LINE#         940
  C:C193H         LINE#         942
  C:C195H         LINE#         943
  C:C197H         LINE#         944
  C:C199H         LINE#         945
  C:C19BH         LINE#         946
  C:C19DH         LINE#         947
  C:C19FH         LINE#         950
  C:C1A1H         LINE#         951
  C:C1A3H         LINE#         952
  C:C1A3H         LINE#         953
  -------         ENDPROC       _LCD_CMDWRITE
  -------         PROC          L?1062
  -------         ENDPROC       L?1062
  -------         PROC          _LCD_DATAWRITE
  D:0006H         SYMBOL        Data
  C:C714H         LINE#         956
  C:C714H         LINE#         957
  C:C717H         LINE#         958
  C:C717H         LINE#         959
  C:C719H         LINE#         960
  C:C71BH         LINE#         961
  C:C71DH         LINE#         963
  C:C71FH         LINE#         964
  C:C721H         LINE#         965
  C:C723H         LINE#         966
  C:C725H         LINE#         968
  C:C728H         LINE#         969
  C:C72AH         LINE#         970
  C:C72BH         LINE#         973
  C:C72BH         LINE#         975
  C:C72DH         LINE#         976
  C:C72FH         LINE#         977
  C:C731H         LINE#         978
  C:C733H         LINE#         980
  C:C735H         LINE#         981
  C:C737H         LINE#         984
  C:C739H         LINE#         985
  C:C73BH         LINE#         986
  C:C73BH         LINE#         988
  -------         ENDPROC       _LCD_DATAWRITE
  -------         PROC          LCD_STATUSREAD
  -------         DO            
  X:023FH         SYMBOL        Data
  X:023FH         SYMBOL        reg_rddata
  -------         ENDDO         
  -------         DO            
  X:023FH         SYMBOL        reg_rddata
  -------         ENDDO         
  C:C655H         LINE#         995
  C:C655H         LINE#         996
  C:C658H         LINE#         997
  C:C658H         LINE#         1000
  C:C65BH         LINE#         1001
  C:C65DH         LINE#         1002
  C:C65FH         LINE#         1003
  C:C661H         LINE#         1004
BL51 BANKED LINKER/LOCATER V6.22                                                      08/26/2015  16:38:21  PAGE 48


  C:C663H         LINE#         1005
  C:C669H         LINE#         1006
  C:C66BH         LINE#         1007
  C:C66DH         LINE#         1008
  C:C670H         LINE#         1009
  C:C672H         LINE#         1010
  C:C675H         LINE#         1011
  C:C675H         LINE#         1014
  C:C675H         LINE#         1018
  C:C678H         LINE#         1019
  C:C67AH         LINE#         1020
  C:C67CH         LINE#         1021
  C:C67EH         LINE#         1022
  C:C680H         LINE#         1023
  C:C682H         LINE#         1024
  C:C688H         LINE#         1027
  C:C68AH         LINE#         1028
  C:C68CH         LINE#         1029
  C:C68EH         LINE#         1030
  C:C68EH         LINE#         1031
  -------         ENDPROC       LCD_STATUSREAD
  C:C73CH         SYMBOL        L?1035
  -------         PROC          L?1034
  -------         ENDPROC       L?1034
  C:C73CH         SYMBOL        L?1035
  -------         PROC          LCD_DATAREAD
  -------         DO            
  X:023FH         SYMBOL        Data
  X:023FH         SYMBOL        reg_rddata
  -------         ENDDO         
  -------         DO            
  X:023FH         SYMBOL        reg_rddata
  -------         ENDDO         
  C:C741H         LINE#         1034
  C:C741H         LINE#         1035
  C:C744H         LINE#         1036
  C:C744H         LINE#         1038
  C:C746H         LINE#         1039
  C:C748H         LINE#         1040
  C:C74AH         LINE#         1041
  C:C74CH         LINE#         1042
  C:C752H         LINE#         1043
  C:C754H         LINE#         1044
  C:C756H         LINE#         1045
  C:C758H         LINE#         1047
  C:C75BH         LINE#         1048
  C:C75BH         LINE#         1051
  C:C75BH         LINE#         1054
  C:C75EH         LINE#         1055
  C:C760H         LINE#         1056
  C:C762H         LINE#         1057
  C:C764H         LINE#         1058
  C:C766H         LINE#         1059
  C:C768H         LINE#         1060
  C:C76EH         LINE#         1063
  C:C770H         LINE#         1067
  C:C772H         LINE#         1068
BL51 BANKED LINKER/LOCATER V6.22                                                      08/26/2015  16:38:21  PAGE 49


  C:C774H         LINE#         1069
  C:C774H         LINE#         1070
  -------         ENDPROC       LCD_DATAREAD
  -------         PROC          L?1131
  -------         ENDPROC       L?1131
  -------         PROC          _LCD_REGISTERWRITE
  D:0007H         SYMBOL        Cmd
  D:0005H         SYMBOL        Data
  C:E558H         LINE#         1075
  C:E558H         LINE#         1076
  C:E558H         LINE#         1077
  C:E55BH         LINE#         1078
  -------         ENDPROC       _LCD_REGISTERWRITE
  -------         PROC          _LCD_REGISTERREAD
  D:0007H         SYMBOL        Cmd
  -------         DO            
  D:0007H         SYMBOL        temp
  -------         ENDDO         
  C:E936H         LINE#         1081
  C:E936H         LINE#         1082
  C:E936H         LINE#         1085
  C:E939H         LINE#         1086
  C:E93CH         LINE#         1087
  C:E93CH         LINE#         1088
  -------         ENDPROC       _LCD_REGISTERREAD
  -------         PROC          LCD_WRITERAM_PREPARE
  C:E944H         LINE#         1090
  C:E944H         LINE#         1091
  C:E944H         LINE#         1092
  -------         ENDPROC       LCD_WRITERAM_PREPARE
  -------         PROC          RA8876_HW_RESET
  C:D899H         LINE#         1095
  C:D899H         LINE#         1096
  C:D899H         LINE#         1098
  C:D89BH         LINE#         1099
  C:D8A2H         LINE#         1100
  C:D8A4H         LINE#         1101
  -------         ENDPROC       RA8876_HW_RESET
  -------         PROC          _LCD_SETPOINT
  D:0006H         SYMBOL        x
  D:0004H         SYMBOL        y
  X:0261H         SYMBOL        point
  C:CE83H         LINE#         1105
  C:CE8BH         LINE#         1106
  C:CE8BH         LINE#         1107
  C:CE8EH         LINE#         1108
  C:CE91H         LINE#         1109
  C:CE9CH         LINE#         1110
  -------         ENDPROC       _LCD_SETPOINT
  -------         PROC          _LCD_PUTCHAR
  X:0226H         SYMBOL        x
  X:0228H         SYMBOL        y
  X:022AH         SYMBOL        c
  X:022BH         SYMBOL        charColor
  X:022DH         SYMBOL        bkColor
  -------         DO            
  X:022FH         SYMBOL        i
BL51 BANKED LINKER/LOCATER V6.22                                                      08/26/2015  16:38:21  PAGE 50


  X:0231H         SYMBOL        j
  X:0233H         SYMBOL        tmp_char
  -------         ENDDO         
  C:AFE2H         LINE#         1114
  C:AFF3H         LINE#         1115
  C:AFF3H         LINE#         1116
  C:AFFAH         LINE#         1117
  C:AFFEH         LINE#         1119
  C:B002H         LINE#         1121
  C:B01BH         LINE#         1122
  C:B01BH         LINE#         1123
  C:B04AH         LINE#         1124
  C:B064H         LINE#         1125
  C:B064H         LINE#         1127
  C:B07BH         LINE#         1128
  C:B07BH         LINE#         1129
  C:B0A3H         LINE#         1130
  C:B0A5H         LINE#         1132
  C:B0A5H         LINE#         1133
  C:B0D5H         LINE#         1134
  C:B0D5H         LINE#         1135
  C:B0E6H         LINE#         1136
  C:B0F7H         LINE#         1137
  -------         ENDPROC       _LCD_PUTCHAR
  -------         PROC          _LCD_DISPLAYSTRING
  X:0217H         SYMBOL        X
  X:0219H         SYMBOL        Y
  X:021BH         SYMBOL        ptr
  X:021EH         SYMBOL        charColor
  X:0220H         SYMBOL        bkColor
  -------         DO            
  X:0222H         SYMBOL        i
  -------         ENDDO         
  C:B481H         LINE#         1140
  C:B498H         LINE#         1141
  C:B498H         LINE#         1142
  C:B4A2H         LINE#         1145
  C:B4DDH         LINE#         1146
  C:B4DDH         LINE#         1148
  C:B50EH         LINE#         1150
  C:B51CH         LINE#         1152
  C:B526H         LINE#         1154
  C:B545H         LINE#         1155
  C:B548H         LINE#         1156
  -------         ENDPROC       _LCD_DISPLAYSTRING
  -------         PROC          _LCD_SETCURSOR
  D:0002H         SYMBOL        Xpos
  D:0004H         SYMBOL        Ypos
  C:C961H         LINE#         1163
  C:C965H         LINE#         1164
  C:C965H         LINE#         1165
  C:C96AH         LINE#         1166
  C:C96FH         LINE#         1167
  C:C974H         LINE#         1168
  C:C97BH         LINE#         1169
  C:C980H         LINE#         1170
  C:C987H         LINE#         1171
BL51 BANKED LINKER/LOCATER V6.22                                                      08/26/2015  16:38:21  PAGE 51


  C:C98CH         LINE#         1172
  -------         ENDPROC       _LCD_SETCURSOR
  -------         PROC          _LCD_CLEAR
  X:0276H         SYMBOL        Color
  -------         DO            
  X:0278H         SYMBOL        index
  -------         ENDDO         
  C:BAF9H         LINE#         1178
  C:BB01H         LINE#         1179
  C:BB01H         LINE#         1180
  C:BB09H         LINE#         1182
  C:BB11H         LINE#         1184
  C:BB14H         LINE#         1186
  C:BB3AH         LINE#         1187
  C:BB3AH         LINE#         1188
  C:BB45H         LINE#         1189
  C:BB4FH         LINE#         1190
  C:BB70H         LINE#         1192
  -------         ENDPROC       _LCD_CLEAR
  -------         PROC          RA8876_INITIAL
  C:B8C8H         LINE#         1197
  C:B8C8H         LINE#         1198
  C:B8C8H         LINE#         1200
  C:B8CBH         LINE#         1201
  C:B8CEH         LINE#         1202
  C:B8D1H         LINE#         1205
  C:B8D4H         LINE#         1206
  C:B8D7H         LINE#         1208
  C:B8DAH         LINE#         1210
  C:B8DDH         LINE#         1212
  C:B8E0H         LINE#         1213
  C:B8E3H         LINE#         1216
  C:B8E6H         LINE#         1217
  C:B8E9H         LINE#         1218
  C:B8ECH         LINE#         1221
  C:B8EFH         LINE#         1222
  C:B8F2H         LINE#         1224
  C:B8F5H         LINE#         1226
  C:B8F8H         LINE#         1227
  C:B903H         LINE#         1229
  C:B90AH         LINE#         1230
  C:B911H         LINE#         1231
  C:B918H         LINE#         1232
  C:B91FH         LINE#         1233
  C:B926H         LINE#         1234
  C:B92DH         LINE#         1237
  C:B930H         LINE#         1238
  C:B933H         LINE#         1239
  C:B93AH         LINE#         1240
  C:B93DH         LINE#         1241
  C:B948H         LINE#         1242
  C:B94FH         LINE#         1243
  C:B952H         LINE#         1244
  C:B955H         LINE#         1246
  C:B958H         LINE#         1247
  C:B95BH         LINE#         1248
  -------         ENDPROC       RA8876_INITIAL
BL51 BANKED LINKER/LOCATER V6.22                                                      08/26/2015  16:38:21  PAGE 52


  -------         PROC          RA8876_PLL_INITIAL
  -------         DO            
  X:0213H         SYMBOL        plldivm_sclk
  D:0002H         SYMBOL        plldivm_cclk
  X:0215H         SYMBOL        plldivm_mclk
  X:0217H         SYMBOL        plldivn_sclk
  X:0219H         SYMBOL        plldivn_cclk
  X:021BH         SYMBOL        plldivn_mclk
  X:021DH         SYMBOL        plldivk_sclk
  X:021FH         SYMBOL        plldivk_cclk
  X:0221H         SYMBOL        plldivk_mclk
  X:0223H         SYMBOL        plldivk_sclkpow
  X:0225H         SYMBOL        plldivk_cclkpow
  X:0227H         SYMBOL        plldivk_mclkpow
  X:0229H         SYMBOL        temp_sclk
  D:0004H         SYMBOL        temp_cclk
  X:022BH         SYMBOL        temp_mclk
  -------         ENDDO         
  C:AC01H         LINE#         1253
  C:AC01H         LINE#         1254
  C:AC01H         LINE#         1267
  C:AC09H         LINE#         1268
  C:AC12H         LINE#         1296
  C:AC19H         LINE#         1307
  C:AC20H         LINE#         1308
  C:AC29H         LINE#         1331
  C:AC31H         LINE#         1332
  C:AC3AH         LINE#         1344
  C:AC3DH         LINE#         1352
  C:AC62H         LINE#         1353
  C:AC8FH         LINE#         1354
  C:ACB5H         LINE#         1356
  C:ACC8H         LINE#         1357
  C:ACE7H         LINE#         1358
  C:ACF8H         LINE#         1361
  C:ACFDH         LINE#         1362
  C:AD08H         LINE#         1363
  C:AD0DH         LINE#         1364
  C:AD16H         LINE#         1365
  C:AD1BH         LINE#         1366
  C:AD22H         LINE#         1368
  C:AD27H         LINE#         1369
  C:AD32H         LINE#         1370
  C:AD37H         LINE#         1371
  C:AD42H         LINE#         1372
  C:AD47H         LINE#         1373
  C:AD52H         LINE#         1375
  C:AD57H         LINE#         1376
  C:AD5DH         LINE#         1377
  C:AD61H         LINE#         1378
  C:AD68H         LINE#         1381
  -------         ENDPROC       RA8876_PLL_INITIAL
  -------         PROC          RA8876_SDRAM_INITAIL
  -------         DO            
  D:0002H         SYMBOL        sdram_itv
  -------         ENDDO         
  C:C7AEH         LINE#         1388
BL51 BANKED LINKER/LOCATER V6.22                                                      08/26/2015  16:38:21  PAGE 53


  C:C7AEH         LINE#         1389
  C:C7AEH         LINE#         1485
  C:C7B5H         LINE#         1486
  C:C7BCH         LINE#         1488
  C:C7C0H         LINE#         1490
  C:C7C8H         LINE#         1492
  C:C7CFH         LINE#         1493
  C:C7D5H         LINE#         1495
  C:C7DCH         LINE#         1540
  C:C7DFH         LINE#         1542
  -------         ENDPROC       RA8876_SDRAM_INITAIL
  C:E616H         SYMBOL        L?1146
  -------         PROC          L?1145
  -------         ENDPROC       L?1145
  C:E616H         SYMBOL        L?1146
  -------         PROC          CHECK_MEM_WR_FIFO_NOT_FULL
  C:E61BH         LINE#         1550
  C:E61BH         LINE#         1551
  C:E61BH         LINE#         1555
  C:E61BH         LINE#         1557
  C:E622H         LINE#         1558
  -------         ENDPROC       CHECK_MEM_WR_FIFO_NOT_FULL
  -------         PROC          CHECK_MEM_WR_FIFO_EMPTY
  C:E8DEH         LINE#         1559
  C:E8DEH         LINE#         1560
  C:E8DEH         LINE#         1564
  C:E8DEH         LINE#         1566
  C:E8E5H         LINE#         1567
  -------         ENDPROC       CHECK_MEM_WR_FIFO_EMPTY
  -------         PROC          CHECK_MEM_RD_FIFO_NOT_FULL
  C:E8E6H         LINE#         1568
  C:E8E6H         LINE#         1569
  C:E8E6H         LINE#         1573
  C:E8E6H         LINE#         1575
  C:E8EDH         LINE#         1576
  -------         ENDPROC       CHECK_MEM_RD_FIFO_NOT_FULL
  -------         PROC          CHECK_MEM_RD_FIFO_NOT_EMPTY
  C:E8EEH         LINE#         1577
  C:E8EEH         LINE#         1578
  C:E8EEH         LINE#         1583
  C:E8EEH         LINE#         1585
  C:E8F5H         LINE#         1586
  -------         ENDPROC       CHECK_MEM_RD_FIFO_NOT_EMPTY
  -------         PROC          CHECK_2D_BUSY
  C:E8F6H         LINE#         1587
  C:E8F6H         LINE#         1588
  C:E8F6H         LINE#         1590
  C:E8F6H         LINE#         1591
  C:E8FDH         LINE#         1593
  -------         ENDPROC       CHECK_2D_BUSY
  -------         PROC          CHECK_SDRAM_READY
  -------         DO            
  D:0007H         SYMBOL        temp
  -------         ENDDO         
  C:E8FEH         LINE#         1594
  C:E8FEH         LINE#         1595
  C:E8FEH         LINE#         1600
BL51 BANKED LINKER/LOCATER V6.22                                                      08/26/2015  16:38:21  PAGE 54


  C:E8FEH         LINE#         1601
  C:E901H         LINE#         1602
  C:E905H         LINE#         1603
  -------         ENDPROC       CHECK_SDRAM_READY
  -------         PROC          POWER_SAVING_STATUS
  -------         DO            
  D:0006H         SYMBOL        temp
  -------         ENDDO         
  C:E523H         LINE#         1606
  C:E523H         LINE#         1607
  C:E523H         LINE#         1610
  C:E52AH         LINE#         1611
  C:E52EH         LINE#         1613
  C:E530H         LINE#         1615
  C:E532H         LINE#         1616
  -------         ENDPROC       POWER_SAVING_STATUS
  -------         PROC          CHECK_POWER_IS_NORMAL
  C:E906H         LINE#         1619
  C:E906H         LINE#         1620
  C:E906H         LINE#         1624
  C:E906H         LINE#         1626
  C:E90DH         LINE#         1627
  -------         ENDPROC       CHECK_POWER_IS_NORMAL
  -------         PROC          CHECK_POWER_IS_SAVING
  C:E90EH         LINE#         1628
  C:E90EH         LINE#         1629
  C:E90EH         LINE#         1633
  C:E90EH         LINE#         1635
  C:E915H         LINE#         1636
  -------         ENDPROC       CHECK_POWER_IS_SAVING
  -------         PROC          CHECK_NO_INTERRUPT
  C:E916H         LINE#         1637
  C:E916H         LINE#         1638
  C:E916H         LINE#         1643
  C:E916H         LINE#         1645
  C:E91DH         LINE#         1646
  -------         ENDPROC       CHECK_NO_INTERRUPT
  -------         PROC          CHECK_INTERRUPT_OCCUR
  C:E91EH         LINE#         1647
  C:E91EH         LINE#         1648
  C:E91EH         LINE#         1653
  C:E91EH         LINE#         1655
  C:E925H         LINE#         1656
  -------         ENDPROC       CHECK_INTERRUPT_OCCUR
  -------         PROC          CHECK_BUSY_DRAW
  -------         DO            
  D:0007H         SYMBOL        temp
  -------         ENDDO         
  C:E926H         LINE#         1658
  C:E926H         LINE#         1659
  C:E926H         LINE#         1668
  C:E926H         LINE#         1669
  C:E929H         LINE#         1670
  C:E92DH         LINE#         1691
  -------         ENDPROC       CHECK_BUSY_DRAW
  -------         PROC          RA8876_SW_RESET
  -------         DO            
BL51 BANKED LINKER/LOCATER V6.22                                                      08/26/2015  16:38:21  PAGE 55


  D:0005H         SYMBOL        temp
  -------         ENDDO         
  C:CF6CH         LINE#         1695
  C:CF6CH         LINE#         1696
  C:CF6CH         LINE#         1699
  C:CF71H         LINE#         1700
  C:CF76H         LINE#         1701
  C:CF7AH         LINE#         1702
  C:CF80H         LINE#         1705
  C:CF80H         LINE#         1706
  C:CF85H         LINE#         1707
  C:CF85H         LINE#         1708
  C:CF89H         LINE#         1709
  -------         ENDPROC       RA8876_SW_RESET
  -------         PROC          ENABLE_PLL
  -------         DO            
  D:0007H         SYMBOL        temp
  -------         ENDDO         
  C:D163H         LINE#         1712
  C:D163H         LINE#         1713
  C:D163H         LINE#         1717
  C:D168H         LINE#         1718
  C:D16BH         LINE#         1719
  C:D16FH         LINE#         1720
  C:D174H         LINE#         1722
  -------         ENDPROC       ENABLE_PLL
  -------         PROC          RA8876_SLEEP
  -------         DO            
  D:0007H         SYMBOL        temp
  -------         ENDDO         
  C:D995H         LINE#         1724
  C:D995H         LINE#         1725
  C:D995H         LINE#         1729
  C:D99AH         LINE#         1730
  C:D99DH         LINE#         1731
  C:D9A1H         LINE#         1732
  -------         ENDPROC       RA8876_SLEEP
  -------         PROC          RA8876_WAKEUP
  -------         DO            
  D:0007H         SYMBOL        temp
  -------         ENDDO         
  C:D9A6H         LINE#         1734
  C:D9A6H         LINE#         1735
  C:D9A6H         LINE#         1739
  C:D9ABH         LINE#         1740
  C:D9AEH         LINE#         1741
  C:D9B2H         LINE#         1742
  -------         ENDPROC       RA8876_WAKEUP
  -------         PROC          KEY_SCAN_ENABLE
  -------         DO            
  D:0007H         SYMBOL        temp
  -------         ENDDO         
  C:D9B7H         LINE#         1744
  C:D9B7H         LINE#         1745
  C:D9B7H         LINE#         1749
  C:D9BCH         LINE#         1750
  C:D9BFH         LINE#         1751
BL51 BANKED LINKER/LOCATER V6.22                                                      08/26/2015  16:38:21  PAGE 56


  C:D9C3H         LINE#         1752
  -------         ENDPROC       KEY_SCAN_ENABLE
  -------         PROC          KEY_SCAN_DISABLE
  -------         DO            
  D:0007H         SYMBOL        temp
  -------         ENDDO         
  C:D9C8H         LINE#         1754
  C:D9C8H         LINE#         1755
  C:D9C8H         LINE#         1759
  C:D9CDH         LINE#         1760
  C:D9D0H         LINE#         1761
  C:D9D4H         LINE#         1762
  -------         ENDPROC       KEY_SCAN_DISABLE
  -------         PROC          TFT_24BIT
  -------         DO            
  D:0007H         SYMBOL        temp
  -------         ENDDO         
  C:D308H         LINE#         1764
  C:D308H         LINE#         1765
  C:D308H         LINE#         1771
  C:D30DH         LINE#         1772
  C:D310H         LINE#         1773
  C:D313H         LINE#         1774
  C:D316H         LINE#         1775
  -------         ENDPROC       TFT_24BIT
  -------         PROC          TFT_18BIT
  -------         DO            
  D:0007H         SYMBOL        temp
  -------         ENDDO         
  C:D31BH         LINE#         1777
  C:D31BH         LINE#         1778
  C:D31BH         LINE#         1784
  C:D320H         LINE#         1785
  C:D323H         LINE#         1786
  C:D326H         LINE#         1787
  C:D329H         LINE#         1788
  -------         ENDPROC       TFT_18BIT
  -------         PROC          TFT_16BIT
  -------         DO            
  D:0007H         SYMBOL        temp
  -------         ENDDO         
  C:D32EH         LINE#         1790
  C:D32EH         LINE#         1791
  C:D32EH         LINE#         1797
  C:D333H         LINE#         1798
  C:D336H         LINE#         1799
  C:D339H         LINE#         1800
  C:D33CH         LINE#         1801
  -------         ENDPROC       TFT_16BIT
  -------         PROC          TFT_LVDS
  -------         DO            
  D:0007H         SYMBOL        temp
  -------         ENDDO         
  C:D341H         LINE#         1803
  C:D341H         LINE#         1804
  C:D341H         LINE#         1810
  C:D346H         LINE#         1811
BL51 BANKED LINKER/LOCATER V6.22                                                      08/26/2015  16:38:21  PAGE 57


  C:D349H         LINE#         1812
  C:D34CH         LINE#         1813
  C:D34FH         LINE#         1814
  -------         ENDPROC       TFT_LVDS
  -------         PROC          RA8876_I2CM_ENABLE
  -------         DO            
  D:0007H         SYMBOL        temp
  -------         ENDDO         
  C:D9D9H         LINE#         1817
  C:D9D9H         LINE#         1818
  C:D9D9H         LINE#         1823
  C:D9DEH         LINE#         1824
  C:D9E1H         LINE#         1825
  C:D9E5H         LINE#         1826
  -------         ENDPROC       RA8876_I2CM_ENABLE
  -------         PROC          RA8876_I2CM_DISABLE
  -------         DO            
  D:0007H         SYMBOL        temp
  -------         ENDDO         
  C:D9EAH         LINE#         1829
  C:D9EAH         LINE#         1830
  C:D9EAH         LINE#         1835
  C:D9EFH         LINE#         1836
  C:D9F2H         LINE#         1837
  C:D9F6H         LINE#         1838
  -------         ENDPROC       RA8876_I2CM_DISABLE
  -------         PROC          ENABLE_SFLASH_SPI
  -------         DO            
  D:0007H         SYMBOL        temp
  -------         ENDDO         
  C:D9FBH         LINE#         1841
  C:D9FBH         LINE#         1842
  C:D9FBH         LINE#         1847
  C:DA00H         LINE#         1848
  C:DA03H         LINE#         1849
  C:DA07H         LINE#         1850
  -------         ENDPROC       ENABLE_SFLASH_SPI
  -------         PROC          DISABLE_SFLASH_SPI
  -------         DO            
  D:0007H         SYMBOL        temp
  -------         ENDDO         
  C:DA0CH         LINE#         1853
  C:DA0CH         LINE#         1854
  C:DA0CH         LINE#         1859
  C:DA11H         LINE#         1860
  C:DA14H         LINE#         1861
  C:DA18H         LINE#         1862
  -------         ENDPROC       DISABLE_SFLASH_SPI
  -------         PROC          HOST_BUS_8BIT
  -------         DO            
  D:0007H         SYMBOL        temp
  -------         ENDDO         
  C:DA1DH         LINE#         1864
  C:DA1DH         LINE#         1865
  C:DA1DH         LINE#         1870
  C:DA22H         LINE#         1871
  C:DA25H         LINE#         1872
BL51 BANKED LINKER/LOCATER V6.22                                                      08/26/2015  16:38:21  PAGE 58


  C:DA29H         LINE#         1873
  -------         ENDPROC       HOST_BUS_8BIT
  -------         PROC          HOST_BUS_16BIT
  -------         DO            
  D:0007H         SYMBOL        temp
  -------         ENDDO         
  C:DA2EH         LINE#         1875
  C:DA2EH         LINE#         1876
  C:DA2EH         LINE#         1881
  C:DA33H         LINE#         1882
  C:DA36H         LINE#         1883
  C:DA3AH         LINE#         1884
  -------         ENDPROC       HOST_BUS_16BIT
  -------         PROC          RGB_8B_8BPP
  -------         DO            
  D:0007H         SYMBOL        temp
  -------         ENDDO         
  C:D354H         LINE#         1889
  C:D354H         LINE#         1890
  C:D354H         LINE#         1892
  C:D359H         LINE#         1893
  C:D35CH         LINE#         1894
  C:D35FH         LINE#         1895
  C:D362H         LINE#         1896
  -------         ENDPROC       RGB_8B_8BPP
  -------         PROC          RGB_8B_16BPP
  -------         DO            
  D:0007H         SYMBOL        temp
  -------         ENDDO         
  C:D367H         LINE#         1898
  C:D367H         LINE#         1899
  C:D367H         LINE#         1901
  C:D36CH         LINE#         1902
  C:D36FH         LINE#         1903
  C:D372H         LINE#         1904
  C:D375H         LINE#         1905
  -------         ENDPROC       RGB_8B_16BPP
  -------         PROC          RGB_8B_24BPP
  -------         DO            
  D:0007H         SYMBOL        temp
  -------         ENDDO         
  C:D37AH         LINE#         1907
  C:D37AH         LINE#         1908
  C:D37AH         LINE#         1910
  C:D37FH         LINE#         1911
  C:D382H         LINE#         1912
  C:D385H         LINE#         1913
  C:D388H         LINE#         1914
  -------         ENDPROC       RGB_8B_24BPP
  -------         PROC          RGB_16B_8BPP
  -------         DO            
  D:0007H         SYMBOL        temp
  -------         ENDDO         
  C:D38DH         LINE#         1917
  C:D38DH         LINE#         1918
  C:D38DH         LINE#         1920
  C:D392H         LINE#         1921
BL51 BANKED LINKER/LOCATER V6.22                                                      08/26/2015  16:38:21  PAGE 59


  C:D395H         LINE#         1922
  C:D398H         LINE#         1923
  C:D39BH         LINE#         1924
  -------         ENDPROC       RGB_16B_8BPP
  -------         PROC          RGB_16B_16BPP
  -------         DO            
  D:0007H         SYMBOL        temp
  -------         ENDDO         
  C:D3A0H         LINE#         1926
  C:D3A0H         LINE#         1927
  C:D3A0H         LINE#         1929
  C:D3A5H         LINE#         1930
  C:D3A8H         LINE#         1931
  C:D3ABH         LINE#         1932
  C:D3AEH         LINE#         1933
  -------         ENDPROC       RGB_16B_16BPP
  -------         PROC          RGB_16B_24BPP_MODE1
  -------         DO            
  D:0007H         SYMBOL        temp
  -------         ENDDO         
  C:D3B3H         LINE#         1935
  C:D3B3H         LINE#         1936
  C:D3B3H         LINE#         1938
  C:D3B8H         LINE#         1939
  C:D3BBH         LINE#         1940
  C:D3BEH         LINE#         1941
  C:D3C1H         LINE#         1942
  -------         ENDPROC       RGB_16B_24BPP_MODE1
  -------         PROC          RGB_16B_24BPP_MODE2
  -------         DO            
  D:0007H         SYMBOL        temp
  -------         ENDDO         
  C:D3C6H         LINE#         1944
  C:D3C6H         LINE#         1945
  C:D3C6H         LINE#         1947
  C:D3CBH         LINE#         1948
  C:D3CEH         LINE#         1949
  C:D3D1H         LINE#         1950
  C:D3D4H         LINE#         1951
  -------         ENDPROC       RGB_16B_24BPP_MODE2
  -------         PROC          MEMREAD_LEFT_RIGHT_TOP_DOWN
  -------         DO            
  D:0007H         SYMBOL        temp
  -------         ENDDO         
  C:D3D9H         LINE#         1954
  C:D3D9H         LINE#         1955
  C:D3D9H         LINE#         1957
  C:D3DEH         LINE#         1958
  C:D3E1H         LINE#         1959
  C:D3E4H         LINE#         1960
  C:D3E7H         LINE#         1961
  -------         ENDPROC       MEMREAD_LEFT_RIGHT_TOP_DOWN
  -------         PROC          MEMREAD_RIGHT_LEFT_TOP_DOWN
  -------         DO            
  D:0007H         SYMBOL        temp
  -------         ENDDO         
  C:D3ECH         LINE#         1963
BL51 BANKED LINKER/LOCATER V6.22                                                      08/26/2015  16:38:21  PAGE 60


  C:D3ECH         LINE#         1964
  C:D3ECH         LINE#         1966
  C:D3F1H         LINE#         1967
  C:D3F4H         LINE#         1968
  C:D3F7H         LINE#         1969
  C:D3FAH         LINE#         1970
  -------         ENDPROC       MEMREAD_RIGHT_LEFT_TOP_DOWN
  -------         PROC          MEMREAD_TOP_DOWN_LEFT_RIGHT
  -------         DO            
  D:0007H         SYMBOL        temp
  -------         ENDDO         
  C:D3FFH         LINE#         1972
  C:D3FFH         LINE#         1973
  C:D3FFH         LINE#         1975
  C:D404H         LINE#         1976
  C:D407H         LINE#         1977
  C:D40AH         LINE#         1978
  C:D40DH         LINE#         1979
  -------         ENDPROC       MEMREAD_TOP_DOWN_LEFT_RIGHT
  -------         PROC          MEMREAD_DOWN_TOP_LEFT_RIGHT
  -------         DO            
  D:0007H         SYMBOL        temp
  -------         ENDDO         
  C:D412H         LINE#         1981
  C:D412H         LINE#         1982
  C:D412H         LINE#         1984
  C:D417H         LINE#         1985
  C:D41AH         LINE#         1986
  C:D41DH         LINE#         1987
  C:D420H         LINE#         1988
  -------         ENDPROC       MEMREAD_DOWN_TOP_LEFT_RIGHT
  -------         PROC          MEMWRITE_LEFT_RIGHT_TOP_DOWN
  -------         DO            
  D:0007H         SYMBOL        temp
  -------         ENDDO         
  C:D425H         LINE#         1990
  C:D425H         LINE#         1991
  C:D425H         LINE#         1993
  C:D42AH         LINE#         1994
  C:D42DH         LINE#         1995
  C:D430H         LINE#         1996
  C:D433H         LINE#         1997
  -------         ENDPROC       MEMWRITE_LEFT_RIGHT_TOP_DOWN
  -------         PROC          MEMWRITE_RIGHT_LEFT_TOP_DOWN
  -------         DO            
  D:0007H         SYMBOL        temp
  -------         ENDDO         
  C:D438H         LINE#         1999
  C:D438H         LINE#         2000
  C:D438H         LINE#         2002
  C:D43DH         LINE#         2003
  C:D440H         LINE#         2004
  C:D443H         LINE#         2005
  C:D446H         LINE#         2006
  -------         ENDPROC       MEMWRITE_RIGHT_LEFT_TOP_DOWN
  -------         PROC          MEMWRITE_TOP_DOWN_LEFT_RIGHT
  -------         DO            
BL51 BANKED LINKER/LOCATER V6.22                                                      08/26/2015  16:38:21  PAGE 61


  D:0007H         SYMBOL        temp
  -------         ENDDO         
  C:D44BH         LINE#         2008
  C:D44BH         LINE#         2009
  C:D44BH         LINE#         2011
  C:D450H         LINE#         2012
  C:D453H         LINE#         2013
  C:D456H         LINE#         2014
  C:D459H         LINE#         2015
  -------         ENDPROC       MEMWRITE_TOP_DOWN_LEFT_RIGHT
  -------         PROC          MEMWRITE_DOWN_TOP_LEFT_RIGHT
  -------         DO            
  D:0007H         SYMBOL        temp
  -------         ENDDO         
  C:D45EH         LINE#         2017
  C:D45EH         LINE#         2018
  C:D45EH         LINE#         2020
  C:D463H         LINE#         2021
  C:D466H         LINE#         2022
  C:D469H         LINE#         2023
  C:D46CH         LINE#         2024
  -------         ENDPROC       MEMWRITE_DOWN_TOP_LEFT_RIGHT
  -------         PROC          INTERRUPT_ACTIVE_LOW
  -------         DO            
  D:0007H         SYMBOL        temp
  -------         ENDDO         
  C:DA3FH         LINE#         2027
  C:DA3FH         LINE#         2028
  C:DA3FH         LINE#         2033
  C:DA44H         LINE#         2034
  C:DA47H         LINE#         2035
  C:DA4BH         LINE#         2036
  -------         ENDPROC       INTERRUPT_ACTIVE_LOW
  -------         PROC          INTERRUPT_ACTIVE_HIGH
  -------         DO            
  D:0007H         SYMBOL        temp
  -------         ENDDO         
  C:DA50H         LINE#         2038
  C:DA50H         LINE#         2039
  C:DA50H         LINE#         2044
  C:DA55H         LINE#         2045
  C:DA58H         LINE#         2046
  C:DA5CH         LINE#         2047
  -------         ENDPROC       INTERRUPT_ACTIVE_HIGH
  -------         PROC          EXTINTERRUPT_DEBOUNCE
  -------         DO            
  D:0007H         SYMBOL        temp
  -------         ENDDO         
  C:DA61H         LINE#         2049
  C:DA61H         LINE#         2050
  C:DA61H         LINE#         2055
  C:DA66H         LINE#         2056
  C:DA69H         LINE#         2057
  C:DA6DH         LINE#         2058
  -------         ENDPROC       EXTINTERRUPT_DEBOUNCE
  -------         PROC          EXTINTERRUPT_NODEBOUNCE
  -------         DO            
BL51 BANKED LINKER/LOCATER V6.22                                                      08/26/2015  16:38:21  PAGE 62


  D:0007H         SYMBOL        temp
  -------         ENDDO         
  C:DA72H         LINE#         2060
  C:DA72H         LINE#         2061
  C:DA72H         LINE#         2066
  C:DA77H         LINE#         2067
  C:DA7AH         LINE#         2068
  C:DA7EH         LINE#         2069
  -------         ENDPROC       EXTINTERRUPT_NODEBOUNCE
  -------         PROC          EXTINTERRUPT_INPUT_LOW_LEVEL_TRIGGER
  -------         DO            
  D:0007H         SYMBOL        temp
  -------         ENDDO         
  C:D471H         LINE#         2071
  C:D471H         LINE#         2072
  C:D471H         LINE#         2074
  C:D476H         LINE#         2075
  C:D479H         LINE#         2076
  C:D47CH         LINE#         2077
  C:D47FH         LINE#         2078
  -------         ENDPROC       EXTINTERRUPT_INPUT_LOW_LEVEL_TRIGGER
  -------         PROC          EXTINTERRUPT_INPUT_HIGH_LEVEL_TRIGGER
  -------         DO            
  D:0007H         SYMBOL        temp
  -------         ENDDO         
  C:D484H         LINE#         2080
  C:D484H         LINE#         2081
  C:D484H         LINE#         2083
  C:D489H         LINE#         2084
  C:D48CH         LINE#         2085
  C:D48FH         LINE#         2086
  C:D492H         LINE#         2087
  -------         ENDPROC       EXTINTERRUPT_INPUT_HIGH_LEVEL_TRIGGER
  -------         PROC          EXTINTERRUPT_INPUT_FALLING_EDGE_TRIGGER
  -------         DO            
  D:0007H         SYMBOL        temp
  -------         ENDDO         
  C:D497H         LINE#         2089
  C:D497H         LINE#         2090
  C:D497H         LINE#         2092
  C:D49CH         LINE#         2093
  C:D49FH         LINE#         2094
  C:D4A2H         LINE#         2095
  C:D4A5H         LINE#         2096
  -------         ENDPROC       EXTINTERRUPT_INPUT_FALLING_EDGE_TRIGGER
  -------         PROC          EXTINTERRUPT_INPUT_RISING_EDGE_TRIGGER
  -------         DO            
  D:0007H         SYMBOL        temp
  -------         ENDDO         
  C:D4AAH         LINE#         2098
  C:D4AAH         LINE#         2099
  C:D4AAH         LINE#         2101
  C:D4AFH         LINE#         2102
  C:D4B2H         LINE#         2103
  C:D4B5H         LINE#         2104
  C:D4B8H         LINE#         2105
  -------         ENDPROC       EXTINTERRUPT_INPUT_RISING_EDGE_TRIGGER
BL51 BANKED LINKER/LOCATER V6.22                                                      08/26/2015  16:38:21  PAGE 63


  -------         PROC          LVDS_FORMAT1
  -------         DO            
  D:0007H         SYMBOL        temp
  -------         ENDDO         
  C:DA83H         LINE#         2107
  C:DA83H         LINE#         2108
  C:DA83H         LINE#         2110
  C:DA88H         LINE#         2111
  C:DA8BH         LINE#         2112
  C:DA8FH         LINE#         2113
  -------         ENDPROC       LVDS_FORMAT1
  -------         PROC          LVDS_FORMAT2
  -------         DO            
  D:0007H         SYMBOL        temp
  -------         ENDDO         
  C:DA94H         LINE#         2115
  C:DA94H         LINE#         2116
  C:DA94H         LINE#         2118
  C:DA99H         LINE#         2119
  C:DA9CH         LINE#         2120
  C:DAA0H         LINE#         2121
  -------         ENDPROC       LVDS_FORMAT2
  -------         PROC          GRAPHIC_MODE
  -------         DO            
  D:0007H         SYMBOL        temp
  -------         ENDDO         
  C:DAA5H         LINE#         2123
  C:DAA5H         LINE#         2124
  C:DAA5H         LINE#         2126
  C:DAAAH         LINE#         2127
  C:DAADH         LINE#         2128
  C:DAB1H         LINE#         2129
  -------         ENDPROC       GRAPHIC_MODE
  -------         PROC          TEXT_MODE
  -------         DO            
  D:0007H         SYMBOL        temp
  -------         ENDDO         
  C:DAB6H         LINE#         2131
  C:DAB6H         LINE#         2132
  C:DAB6H         LINE#         2134
  C:DABBH         LINE#         2135
  C:DABEH         LINE#         2136
  C:DAC2H         LINE#         2137
  -------         ENDPROC       TEXT_MODE
  -------         PROC          MEMORY_SELECT_SDRAM
  -------         DO            
  D:0007H         SYMBOL        temp
  -------         ENDDO         
  C:D4BDH         LINE#         2139
  C:D4BDH         LINE#         2140
  C:D4BDH         LINE#         2142
  C:D4C2H         LINE#         2143
  C:D4C5H         LINE#         2144
  C:D4C8H         LINE#         2145
  C:D4CBH         LINE#         2146
  -------         ENDPROC       MEMORY_SELECT_SDRAM
  -------         PROC          MEMORY_SELECT_GRAPHIC_CURSOR_RAM
BL51 BANKED LINKER/LOCATER V6.22                                                      08/26/2015  16:38:21  PAGE 64


  -------         DO            
  D:0007H         SYMBOL        temp
  -------         ENDDO         
  C:D4D0H         LINE#         2148
  C:D4D0H         LINE#         2149
  C:D4D0H         LINE#         2151
  C:D4D5H         LINE#         2152
  C:D4D8H         LINE#         2153
  C:D4DBH         LINE#         2154
  C:D4DEH         LINE#         2155
  -------         ENDPROC       MEMORY_SELECT_GRAPHIC_CURSOR_RAM
  -------         PROC          MEMORY_SELECT_COLOR_PALETTE_RAM
  -------         DO            
  D:0007H         SYMBOL        temp
  -------         ENDDO         
  C:D4E3H         LINE#         2157
  C:D4E3H         LINE#         2158
  C:D4E3H         LINE#         2160
  C:D4E8H         LINE#         2161
  C:D4EBH         LINE#         2162
  C:D4EEH         LINE#         2163
  C:D4F1H         LINE#         2164
  -------         ENDPROC       MEMORY_SELECT_COLOR_PALETTE_RAM
  -------         PROC          ENABLE_RESUME_INTERRUPT
  -------         DO            
  D:0007H         SYMBOL        temp
  -------         ENDDO         
  C:DAC7H         LINE#         2175
  C:DAC7H         LINE#         2176
  C:DAC7H         LINE#         2183
  C:DACCH         LINE#         2184
  C:DACFH         LINE#         2185
  C:DAD3H         LINE#         2186
  -------         ENDPROC       ENABLE_RESUME_INTERRUPT
  -------         PROC          DISABLE_RESUME_INTERRUPT
  -------         DO            
  D:0007H         SYMBOL        temp
  -------         ENDDO         
  C:DAD8H         LINE#         2188
  C:DAD8H         LINE#         2189
  C:DAD8H         LINE#         2196
  C:DADDH         LINE#         2197
  C:DAE0H         LINE#         2198
  C:DAE4H         LINE#         2199
  -------         ENDPROC       DISABLE_RESUME_INTERRUPT
  -------         PROC          ENABLE_EXTINTERRUPT_INPUT
  -------         DO            
  D:0007H         SYMBOL        temp
  -------         ENDDO         
  C:DAE9H         LINE#         2201
  C:DAE9H         LINE#         2202
  C:DAE9H         LINE#         2209
  C:DAEEH         LINE#         2210
  C:DAF1H         LINE#         2211
  C:DAF5H         LINE#         2212
  -------         ENDPROC       ENABLE_EXTINTERRUPT_INPUT
  -------         PROC          DISABLE_EXTINTERRUPT_INPUT
BL51 BANKED LINKER/LOCATER V6.22                                                      08/26/2015  16:38:21  PAGE 65


  -------         DO            
  D:0007H         SYMBOL        temp
  -------         ENDDO         
  C:DAFAH         LINE#         2214
  C:DAFAH         LINE#         2215
  C:DAFAH         LINE#         2222
  C:DAFFH         LINE#         2223
  C:DB02H         LINE#         2224
  C:DB06H         LINE#         2225
  -------         ENDPROC       DISABLE_EXTINTERRUPT_INPUT
  -------         PROC          ENABLE_I2CM_INTERRUPT
  -------         DO            
  D:0007H         SYMBOL        temp
  -------         ENDDO         
  C:DB0BH         LINE#         2227
  C:DB0BH         LINE#         2228
  C:DB0BH         LINE#         2235
  C:DB10H         LINE#         2236
  C:DB13H         LINE#         2237
  C:DB17H         LINE#         2238
  -------         ENDPROC       ENABLE_I2CM_INTERRUPT
  -------         PROC          DISABLE_I2CM_INTERRUPT
  -------         DO            
  D:0007H         SYMBOL        temp
  -------         ENDDO         
  C:DB1CH         LINE#         2240
  C:DB1CH         LINE#         2241
  C:DB1CH         LINE#         2248
  C:DB21H         LINE#         2249
  C:DB24H         LINE#         2250
  C:DB28H         LINE#         2251
  -------         ENDPROC       DISABLE_I2CM_INTERRUPT
  -------         PROC          ENABLE_VSYNC_INTERRUPT
  -------         DO            
  D:0007H         SYMBOL        temp
  -------         ENDDO         
  C:DB2DH         LINE#         2253
  C:DB2DH         LINE#         2254
  C:DB2DH         LINE#         2261
  C:DB32H         LINE#         2262
  C:DB35H         LINE#         2263
  C:DB39H         LINE#         2264
  -------         ENDPROC       ENABLE_VSYNC_INTERRUPT
  -------         PROC          DISABLE_VSYNC_INTERRUPT
  -------         DO            
  D:0007H         SYMBOL        temp
  -------         ENDDO         
  C:DB3EH         LINE#         2266
  C:DB3EH         LINE#         2267
  C:DB3EH         LINE#         2274
  C:DB43H         LINE#         2275
  C:DB46H         LINE#         2276
  C:DB4AH         LINE#         2277
  -------         ENDPROC       DISABLE_VSYNC_INTERRUPT
  -------         PROC          ENABLE_KEYSCAN_INTERRUPT
  -------         DO            
  D:0007H         SYMBOL        temp
BL51 BANKED LINKER/LOCATER V6.22                                                      08/26/2015  16:38:21  PAGE 66


  -------         ENDDO         
  C:DB4FH         LINE#         2279
  C:DB4FH         LINE#         2280
  C:DB4FH         LINE#         2287
  C:DB54H         LINE#         2288
  C:DB57H         LINE#         2289
  C:DB5BH         LINE#         2290
  -------         ENDPROC       ENABLE_KEYSCAN_INTERRUPT
  -------         PROC          DISABLE_KEYSCAN_INTERRUPT
  -------         DO            
  D:0007H         SYMBOL        temp
  -------         ENDDO         
  C:DB60H         LINE#         2292
  C:DB60H         LINE#         2293
  C:DB60H         LINE#         2300
  C:DB65H         LINE#         2301
  C:DB68H         LINE#         2302
  C:DB6CH         LINE#         2303
  -------         ENDPROC       DISABLE_KEYSCAN_INTERRUPT
  -------         PROC          ENABLE_DMA_DRAW_BTE_INTERRUPT
  -------         DO            
  D:0007H         SYMBOL        temp
  -------         ENDDO         
  C:DB71H         LINE#         2305
  C:DB71H         LINE#         2306
  C:DB71H         LINE#         2314
  C:DB76H         LINE#         2315
  C:DB79H         LINE#         2316
  C:DB7DH         LINE#         2317
  -------         ENDPROC       ENABLE_DMA_DRAW_BTE_INTERRUPT
  -------         PROC          DISABLE_DMA_DRAW_BTE_INTERRUPT
  -------         DO            
  D:0007H         SYMBOL        temp
  -------         ENDDO         
  C:DB82H         LINE#         2319
  C:DB82H         LINE#         2320
  C:DB82H         LINE#         2328
  C:DB87H         LINE#         2329
  C:DB8AH         LINE#         2330
  C:DB8EH         LINE#         2331
  -------         ENDPROC       DISABLE_DMA_DRAW_BTE_INTERRUPT
  -------         PROC          ENABLE_PWM1_INTERRUPT
  -------         DO            
  D:0007H         SYMBOL        temp
  -------         ENDDO         
  C:DB93H         LINE#         2333
  C:DB93H         LINE#         2334
  C:DB93H         LINE#         2341
  C:DB98H         LINE#         2342
  C:DB9BH         LINE#         2343
  C:DB9FH         LINE#         2344
  -------         ENDPROC       ENABLE_PWM1_INTERRUPT
  -------         PROC          DISABLE_PWM1_INTERRUPT
  -------         DO            
  D:0007H         SYMBOL        temp
  -------         ENDDO         
  C:DBA4H         LINE#         2346
BL51 BANKED LINKER/LOCATER V6.22                                                      08/26/2015  16:38:21  PAGE 67


  C:DBA4H         LINE#         2347
  C:DBA4H         LINE#         2354
  C:DBA9H         LINE#         2355
  C:DBACH         LINE#         2356
  C:DBB0H         LINE#         2357
  -------         ENDPROC       DISABLE_PWM1_INTERRUPT
  -------         PROC          ENABLE_PWM0_INTERRUPT
  -------         DO            
  D:0007H         SYMBOL        temp
  -------         ENDDO         
  C:DBB5H         LINE#         2359
  C:DBB5H         LINE#         2360
  C:DBB5H         LINE#         2367
  C:DBBAH         LINE#         2368
  C:DBBDH         LINE#         2369
  C:DBC1H         LINE#         2370
  -------         ENDPROC       ENABLE_PWM0_INTERRUPT
  -------         PROC          DISABLE_PWM0_INTERRUPT
  -------         DO            
  D:0007H         SYMBOL        temp
  -------         ENDDO         
  C:DBC6H         LINE#         2372
  C:DBC6H         LINE#         2373
  C:DBC6H         LINE#         2380
  C:DBCBH         LINE#         2381
  C:DBCEH         LINE#         2382
  C:DBD2H         LINE#         2383
  -------         ENDPROC       DISABLE_PWM0_INTERRUPT
  -------         PROC          READ_INTERRUPT_STATUS
  -------         DO            
  D:0007H         SYMBOL        temp
  -------         ENDDO         
  C:E87BH         LINE#         2387
  C:E87BH         LINE#         2388
  C:E87BH         LINE#         2416
  C:E880H         LINE#         2417
  C:E883H         LINE#         2418
  C:E883H         LINE#         2419
  -------         ENDPROC       READ_INTERRUPT_STATUS
  -------         PROC          CLEAR_RESUME_INTERRUPT_FLAG
  -------         DO            
  D:0007H         SYMBOL        temp
  -------         ENDDO         
  C:DBD7H         LINE#         2420
  C:DBD7H         LINE#         2421
  C:DBD7H         LINE#         2429
  C:DBDCH         LINE#         2430
  C:DBDFH         LINE#         2431
  C:DBE3H         LINE#         2432
  -------         ENDPROC       CLEAR_RESUME_INTERRUPT_FLAG
  -------         PROC          CLEAR_EXTINTERRUPT_INPUT_FLAG
  -------         DO            
  D:0007H         SYMBOL        temp
  -------         ENDDO         
  C:DBE8H         LINE#         2434
  C:DBE8H         LINE#         2435
  C:DBE8H         LINE#         2443
BL51 BANKED LINKER/LOCATER V6.22                                                      08/26/2015  16:38:21  PAGE 68


  C:DBEDH         LINE#         2444
  C:DBF0H         LINE#         2445
  C:DBF4H         LINE#         2446
  -------         ENDPROC       CLEAR_EXTINTERRUPT_INPUT_FLAG
  -------         PROC          CLEAR_I2CM_INTERRUPT_FLAG
  -------         DO            
  D:0007H         SYMBOL        temp
  -------         ENDDO         
  C:DBF9H         LINE#         2448
  C:DBF9H         LINE#         2449
  C:DBF9H         LINE#         2457
  C:DBFEH         LINE#         2458
  C:DC01H         LINE#         2459
  C:DC05H         LINE#         2460
  -------         ENDPROC       CLEAR_I2CM_INTERRUPT_FLAG
  -------         PROC          CLEAR_VSYNC_INTERRUPT_FLAG
  -------         DO            
  D:0007H         SYMBOL        temp
  -------         ENDDO         
  C:DC0AH         LINE#         2462
  C:DC0AH         LINE#         2463
  C:DC0AH         LINE#         2471
  C:DC0FH         LINE#         2472
  C:DC12H         LINE#         2473
  C:DC16H         LINE#         2474
  -------         ENDPROC       CLEAR_VSYNC_INTERRUPT_FLAG
  -------         PROC          CLEAR_KEYSCAN_INTERRUPT_FLAG
  -------         DO            
  D:0007H         SYMBOL        temp
  -------         ENDDO         
  C:DC1BH         LINE#         2476
  C:DC1BH         LINE#         2477
  C:DC1BH         LINE#         2485
  C:DC20H         LINE#         2486
  C:DC23H         LINE#         2487
  C:DC27H         LINE#         2488
  -------         ENDPROC       CLEAR_KEYSCAN_INTERRUPT_FLAG
  -------         PROC          CLEAR_DMA_DRAW_BTE_INTERRUPT_FLAG
  -------         DO            
  D:0007H         SYMBOL        temp
  -------         ENDDO         
  C:DC2CH         LINE#         2490
  C:DC2CH         LINE#         2491
  C:DC2CH         LINE#         2500
  C:DC31H         LINE#         2501
  C:DC34H         LINE#         2502
  C:DC38H         LINE#         2503
  -------         ENDPROC       CLEAR_DMA_DRAW_BTE_INTERRUPT_FLAG
  -------         PROC          CLEAR_PWM1_INTERRUPT_FLAG
  -------         DO            
  D:0007H         SYMBOL        temp
  -------         ENDDO         
  C:DC3DH         LINE#         2505
  C:DC3DH         LINE#         2506
  C:DC3DH         LINE#         2514
  C:DC42H         LINE#         2515
  C:DC45H         LINE#         2516
BL51 BANKED LINKER/LOCATER V6.22                                                      08/26/2015  16:38:21  PAGE 69


  C:DC49H         LINE#         2517
  -------         ENDPROC       CLEAR_PWM1_INTERRUPT_FLAG
  -------         PROC          CLEAR_PWM0_INTERRUPT_FLAG
  -------         DO            
  D:0007H         SYMBOL        temp
  -------         ENDDO         
  C:DC4EH         LINE#         2519
  C:DC4EH         LINE#         2520
  C:DC4EH         LINE#         2528
  C:DC53H         LINE#         2529
  C:DC56H         LINE#         2530
  C:DC5AH         LINE#         2531
  -------         ENDPROC       CLEAR_PWM0_INTERRUPT_FLAG
  -------         PROC          MASK_RESUME_INTERRUPT_FLAG
  -------         DO            
  D:0007H         SYMBOL        temp
  -------         ENDDO         
  C:DC5FH         LINE#         2534
  C:DC5FH         LINE#         2535
  C:DC5FH         LINE#         2542
  C:DC64H         LINE#         2543
  C:DC67H         LINE#         2544
  C:DC6BH         LINE#         2545
  -------         ENDPROC       MASK_RESUME_INTERRUPT_FLAG
  -------         PROC          MASK_EXTINTERRUPT_INPUT_FLAG
  -------         DO            
  D:0007H         SYMBOL        temp
  -------         ENDDO         
  C:DC70H         LINE#         2547
  C:DC70H         LINE#         2548
  C:DC70H         LINE#         2555
  C:DC75H         LINE#         2556
  C:DC78H         LINE#         2557
  C:DC7CH         LINE#         2558
  -------         ENDPROC       MASK_EXTINTERRUPT_INPUT_FLAG
  -------         PROC          MASK_I2CM_INTERRUPT_FLAG
  -------         DO            
  D:0007H         SYMBOL        temp
  -------         ENDDO         
  C:DC81H         LINE#         2560
  C:DC81H         LINE#         2561
  C:DC81H         LINE#         2568
  C:DC86H         LINE#         2569
  C:DC89H         LINE#         2570
  C:DC8DH         LINE#         2571
  -------         ENDPROC       MASK_I2CM_INTERRUPT_FLAG
  -------         PROC          MASK_VSYNC_INTERRUPT_FLAG
  -------         DO            
  D:0007H         SYMBOL        temp
  -------         ENDDO         
  C:DC92H         LINE#         2573
  C:DC92H         LINE#         2574
  C:DC92H         LINE#         2581
  C:DC97H         LINE#         2582
  C:DC9AH         LINE#         2583
  C:DC9EH         LINE#         2584
  -------         ENDPROC       MASK_VSYNC_INTERRUPT_FLAG
BL51 BANKED LINKER/LOCATER V6.22                                                      08/26/2015  16:38:21  PAGE 70


  -------         PROC          MASK_KEYSCAN_INTERRUPT_FLAG
  -------         DO            
  D:0007H         SYMBOL        temp
  -------         ENDDO         
  C:DCA3H         LINE#         2586
  C:DCA3H         LINE#         2587
  C:DCA3H         LINE#         2594
  C:DCA8H         LINE#         2595
  C:DCABH         LINE#         2596
  C:DCAFH         LINE#         2597
  -------         ENDPROC       MASK_KEYSCAN_INTERRUPT_FLAG
  -------         PROC          MASK_DMA_DRAW_BTE_INTERRUPT_FLAG
  -------         DO            
  D:0007H         SYMBOL        temp
  -------         ENDDO         
  C:DCB4H         LINE#         2599
  C:DCB4H         LINE#         2600
  C:DCB4H         LINE#         2608
  C:DCB9H         LINE#         2609
  C:DCBCH         LINE#         2610
  C:DCC0H         LINE#         2611
  -------         ENDPROC       MASK_DMA_DRAW_BTE_INTERRUPT_FLAG
  -------         PROC          MASK_PWM1_INTERRUPT_FLAG
  -------         DO            
  D:0007H         SYMBOL        temp
  -------         ENDDO         
  C:DCC5H         LINE#         2613
  C:DCC5H         LINE#         2614
  C:DCC5H         LINE#         2621
  C:DCCAH         LINE#         2622
  C:DCCDH         LINE#         2623
  C:DCD1H         LINE#         2624
  -------         ENDPROC       MASK_PWM1_INTERRUPT_FLAG
  -------         PROC          MASK_PWM0_INTERRUPT_FLAG
  -------         DO            
  D:0007H         SYMBOL        temp
  -------         ENDDO         
  C:DCD6H         LINE#         2626
  C:DCD6H         LINE#         2627
  C:DCD6H         LINE#         2634
  C:DCDBH         LINE#         2635
  C:DCDEH         LINE#         2636
  C:DCE2H         LINE#         2637
  -------         ENDPROC       MASK_PWM0_INTERRUPT_FLAG
  -------         PROC          ENABLE_RESUME_INTERRUPT_FLAG
  -------         DO            
  D:0007H         SYMBOL        temp
  -------         ENDDO         
  C:DCE7H         LINE#         2640
  C:DCE7H         LINE#         2641
  C:DCE7H         LINE#         2648
  C:DCECH         LINE#         2649
  C:DCEFH         LINE#         2650
  C:DCF3H         LINE#         2651
  -------         ENDPROC       ENABLE_RESUME_INTERRUPT_FLAG
  -------         PROC          ENABLE_EXTINTERRUPT_INPUR_FLAG
  -------         DO            
BL51 BANKED LINKER/LOCATER V6.22                                                      08/26/2015  16:38:21  PAGE 71


  D:0007H         SYMBOL        temp
  -------         ENDDO         
  C:DCF8H         LINE#         2653
  C:DCF8H         LINE#         2654
  C:DCF8H         LINE#         2661
  C:DCFDH         LINE#         2662
  C:DD00H         LINE#         2663
  C:DD04H         LINE#         2664
  -------         ENDPROC       ENABLE_EXTINTERRUPT_INPUR_FLAG
  -------         PROC          ENABLE_I2CM_INTERRUPT_FLAG
  -------         DO            
  D:0007H         SYMBOL        temp
  -------         ENDDO         
  C:DD09H         LINE#         2666
  C:DD09H         LINE#         2667
  C:DD09H         LINE#         2674
  C:DD0EH         LINE#         2675
  C:DD11H         LINE#         2676
  C:DD15H         LINE#         2677
  -------         ENDPROC       ENABLE_I2CM_INTERRUPT_FLAG
  -------         PROC          ENABLE_VSYNC_INTERRUPT_FLAG
  -------         DO            
  D:0007H         SYMBOL        temp
  -------         ENDDO         
  C:DD1AH         LINE#         2679
  C:DD1AH         LINE#         2680
  C:DD1AH         LINE#         2687
  C:DD1FH         LINE#         2688
  C:DD22H         LINE#         2689
  C:DD26H         LINE#         2690
  -------         ENDPROC       ENABLE_VSYNC_INTERRUPT_FLAG
  -------         PROC          ENABLE_KEYSCAN_INTERRUPT_FLAG
  -------         DO            
  D:0007H         SYMBOL        temp
  -------         ENDDO         
  C:DD2BH         LINE#         2692
  C:DD2BH         LINE#         2693
  C:DD2BH         LINE#         2700
  C:DD30H         LINE#         2701
  C:DD33H         LINE#         2702
  C:DD37H         LINE#         2703
  -------         ENDPROC       ENABLE_KEYSCAN_INTERRUPT_FLAG
  -------         PROC          ENABLE_DMA_DRAW_BTE_INTERRUPT_FLAG
  -------         DO            
  D:0007H         SYMBOL        temp
  -------         ENDDO         
  C:DD3CH         LINE#         2705
  C:DD3CH         LINE#         2706
  C:DD3CH         LINE#         2714
  C:DD41H         LINE#         2715
  C:DD44H         LINE#         2716
  C:DD48H         LINE#         2717
  -------         ENDPROC       ENABLE_DMA_DRAW_BTE_INTERRUPT_FLAG
  -------         PROC          ENABLE_PWM1_INTERRUPT_FLAG
  -------         DO            
  D:0007H         SYMBOL        temp
  -------         ENDDO         
BL51 BANKED LINKER/LOCATER V6.22                                                      08/26/2015  16:38:21  PAGE 72


  C:DD4DH         LINE#         2719
  C:DD4DH         LINE#         2720
  C:DD4DH         LINE#         2727
  C:DD52H         LINE#         2728
  C:DD55H         LINE#         2729
  C:DD59H         LINE#         2730
  -------         ENDPROC       ENABLE_PWM1_INTERRUPT_FLAG
  -------         PROC          ENABLE_PWM0_INTERRUPT_FLAG
  -------         DO            
  D:0007H         SYMBOL        temp
  -------         ENDDO         
  C:DD5EH         LINE#         2732
  C:DD5EH         LINE#         2733
  C:DD5EH         LINE#         2740
  C:DD63H         LINE#         2741
  C:DD66H         LINE#         2742
  C:DD6AH         LINE#         2743
  -------         ENDPROC       ENABLE_PWM0_INTERRUPT_FLAG
  -------         PROC          ENABLE_GPIOF_PULLUP
  -------         DO            
  D:0007H         SYMBOL        temp
  -------         ENDDO         
  C:DD6FH         LINE#         2747
  C:DD6FH         LINE#         2748
  C:DD6FH         LINE#         2755
  C:DD74H         LINE#         2756
  C:DD77H         LINE#         2757
  C:DD7BH         LINE#         2758
  -------         ENDPROC       ENABLE_GPIOF_PULLUP
  -------         PROC          ENABLE_GPIOE_PULLUP
  -------         DO            
  D:0007H         SYMBOL        temp
  -------         ENDDO         
  C:DD80H         LINE#         2760
  C:DD80H         LINE#         2761
  C:DD80H         LINE#         2768
  C:DD85H         LINE#         2769
  C:DD88H         LINE#         2770
  C:DD8CH         LINE#         2771
  -------         ENDPROC       ENABLE_GPIOE_PULLUP
  -------         PROC          ENABLE_GPIOD_PULLUP
  -------         DO            
  D:0007H         SYMBOL        temp
  -------         ENDDO         
  C:DD91H         LINE#         2773
  C:DD91H         LINE#         2774
  C:DD91H         LINE#         2781
  C:DD96H         LINE#         2782
  C:DD99H         LINE#         2783
  C:DD9DH         LINE#         2784
  -------         ENDPROC       ENABLE_GPIOD_PULLUP
  -------         PROC          ENABLE_GPIOC_PULLUP
  -------         DO            
  D:0007H         SYMBOL        temp
  -------         ENDDO         
  C:DDA2H         LINE#         2786
  C:DDA2H         LINE#         2787
BL51 BANKED LINKER/LOCATER V6.22                                                      08/26/2015  16:38:21  PAGE 73


  C:DDA2H         LINE#         2795
  C:DDA7H         LINE#         2796
  C:DDAAH         LINE#         2797
  C:DDAEH         LINE#         2798
  -------         ENDPROC       ENABLE_GPIOC_PULLUP
  -------         PROC          ENABLE_XDB15_8_PULLUP
  -------         DO            
  D:0007H         SYMBOL        temp
  -------         ENDDO         
  C:DDB3H         LINE#         2800
  C:DDB3H         LINE#         2801
  C:DDB3H         LINE#         2808
  C:DDB8H         LINE#         2809
  C:DDBBH         LINE#         2810
  C:DDBFH         LINE#         2811
  -------         ENDPROC       ENABLE_XDB15_8_PULLUP
  -------         PROC          ENABLE_XDB7_0_PULLUP
  -------         DO            
  D:0007H         SYMBOL        temp
  -------         ENDDO         
  C:DDC4H         LINE#         2813
  C:DDC4H         LINE#         2814
  C:DDC4H         LINE#         2821
  C:DDC9H         LINE#         2822
  C:DDCCH         LINE#         2823
  C:DDD0H         LINE#         2824
  -------         ENDPROC       ENABLE_XDB7_0_PULLUP
  -------         PROC          DISABLE_GPIOF_PULLUP
  -------         DO            
  D:0007H         SYMBOL        temp
  -------         ENDDO         
  C:DDD5H         LINE#         2826
  C:DDD5H         LINE#         2827
  C:DDD5H         LINE#         2834
  C:DDDAH         LINE#         2835
  C:DDDDH         LINE#         2836
  C:DDE1H         LINE#         2837
  -------         ENDPROC       DISABLE_GPIOF_PULLUP
  -------         PROC          DISABLE_GPIOE_PULLUP
  -------         DO            
  D:0007H         SYMBOL        temp
  -------         ENDDO         
  C:DDE6H         LINE#         2839
  C:DDE6H         LINE#         2840
  C:DDE6H         LINE#         2847
  C:DDEBH         LINE#         2848
  C:DDEEH         LINE#         2849
  C:DDF2H         LINE#         2850
  -------         ENDPROC       DISABLE_GPIOE_PULLUP
  -------         PROC          DISABLE_GPIOD_PULLUP
  -------         DO            
  D:0007H         SYMBOL        temp
  -------         ENDDO         
  C:DDF7H         LINE#         2852
  C:DDF7H         LINE#         2853
  C:DDF7H         LINE#         2860
  C:DDFCH         LINE#         2861
BL51 BANKED LINKER/LOCATER V6.22                                                      08/26/2015  16:38:21  PAGE 74


  C:DDFFH         LINE#         2862
  C:DE03H         LINE#         2863
  -------         ENDPROC       DISABLE_GPIOD_PULLUP
  -------         PROC          DISABLE_GPIOC_PULLUP
  -------         DO            
  D:0007H         SYMBOL        temp
  -------         ENDDO         
  C:DE08H         LINE#         2865
  C:DE08H         LINE#         2866
  C:DE08H         LINE#         2874
  C:DE0DH         LINE#         2875
  C:DE10H         LINE#         2876
  C:DE14H         LINE#         2877
  -------         ENDPROC       DISABLE_GPIOC_PULLUP
  -------         PROC          DISABLE_XDB15_8_PULLUP
  -------         DO            
  D:0007H         SYMBOL        temp
  -------         ENDDO         
  C:DE19H         LINE#         2879
  C:DE19H         LINE#         2880
  C:DE19H         LINE#         2887
  C:DE1EH         LINE#         2888
  C:DE21H         LINE#         2889
  C:DE25H         LINE#         2890
  -------         ENDPROC       DISABLE_XDB15_8_PULLUP
  -------         PROC          DISABLE_XDB7_0_PULLUP
  -------         DO            
  D:0007H         SYMBOL        temp
  -------         ENDDO         
  C:DE2AH         LINE#         2892
  C:DE2AH         LINE#         2893
  C:DE2AH         LINE#         2900
  C:DE2FH         LINE#         2901
  C:DE32H         LINE#         2902
  C:DE36H         LINE#         2903
  -------         ENDPROC       DISABLE_XDB7_0_PULLUP
  -------         PROC          XPDAT18_SET_GPIO_D7
  -------         DO            
  D:0007H         SYMBOL        temp
  -------         ENDDO         
  C:DE3BH         LINE#         2906
  C:DE3BH         LINE#         2907
  C:DE3BH         LINE#         2914
  C:DE40H         LINE#         2915
  C:DE43H         LINE#         2916
  C:DE47H         LINE#         2917
  -------         ENDPROC       XPDAT18_SET_GPIO_D7
  -------         PROC          XPDAT18_SET_KOUT4
  -------         DO            
  D:0007H         SYMBOL        temp
  -------         ENDDO         
  C:DE4CH         LINE#         2919
  C:DE4CH         LINE#         2920
  C:DE4CH         LINE#         2927
  C:DE51H         LINE#         2928
  C:DE54H         LINE#         2929
  C:DE58H         LINE#         2930
BL51 BANKED LINKER/LOCATER V6.22                                                      08/26/2015  16:38:21  PAGE 75


  -------         ENDPROC       XPDAT18_SET_KOUT4
  -------         PROC          XPDAT17_SET_GPIO_D5
  -------         DO            
  D:0007H         SYMBOL        temp
  -------         ENDDO         
  C:DE5DH         LINE#         2932
  C:DE5DH         LINE#         2933
  C:DE5DH         LINE#         2940
  C:DE62H         LINE#         2941
  C:DE65H         LINE#         2942
  C:DE69H         LINE#         2943
  -------         ENDPROC       XPDAT17_SET_GPIO_D5
  -------         PROC          XPDAT17_SET_KOUT2
  -------         DO            
  D:0007H         SYMBOL        temp
  -------         ENDDO         
  C:DE6EH         LINE#         2945
  C:DE6EH         LINE#         2946
  C:DE6EH         LINE#         2953
  C:DE73H         LINE#         2954
  C:DE76H         LINE#         2955
  C:DE7AH         LINE#         2956
  -------         ENDPROC       XPDAT17_SET_KOUT2
  -------         PROC          XPDAT16_SET_GPIO_D4
  -------         DO            
  D:0007H         SYMBOL        temp
  -------         ENDDO         
  C:DE7FH         LINE#         2958
  C:DE7FH         LINE#         2959
  C:DE7FH         LINE#         2966
  C:DE84H         LINE#         2967
  C:DE87H         LINE#         2968
  C:DE8BH         LINE#         2969
  -------         ENDPROC       XPDAT16_SET_GPIO_D4
  -------         PROC          XPDAT16_SET_KOUT1
  -------         DO            
  D:0007H         SYMBOL        temp
  -------         ENDDO         
  C:DE90H         LINE#         2971
  C:DE90H         LINE#         2972
  C:DE90H         LINE#         2979
  C:DE95H         LINE#         2980
  C:DE98H         LINE#         2981
  C:DE9CH         LINE#         2982
  -------         ENDPROC       XPDAT16_SET_KOUT1
  -------         PROC          XPDAT9_SET_GPIO_D3
  -------         DO            
  D:0007H         SYMBOL        temp
  -------         ENDDO         
  C:DEA1H         LINE#         2984
  C:DEA1H         LINE#         2985
  C:DEA1H         LINE#         2992
  C:DEA6H         LINE#         2993
  C:DEA9H         LINE#         2994
  C:DEADH         LINE#         2995
  -------         ENDPROC       XPDAT9_SET_GPIO_D3
  -------         PROC          XPDAT9_SET_KOUT3
BL51 BANKED LINKER/LOCATER V6.22                                                      08/26/2015  16:38:21  PAGE 76


  -------         DO            
  D:0007H         SYMBOL        temp
  -------         ENDDO         
  C:DEB2H         LINE#         2997
  C:DEB2H         LINE#         2998
  C:DEB2H         LINE#         3005
  C:DEB7H         LINE#         3006
  C:DEBAH         LINE#         3007
  C:DEBEH         LINE#         3008
  -------         ENDPROC       XPDAT9_SET_KOUT3
  -------         PROC          XPDAT8_SET_GPIO_D2
  -------         DO            
  D:0007H         SYMBOL        temp
  -------         ENDDO         
  C:DEC3H         LINE#         3010
  C:DEC3H         LINE#         3011
  C:DEC3H         LINE#         3018
  C:DEC8H         LINE#         3019
  C:DECBH         LINE#         3020
  C:DECFH         LINE#         3021
  -------         ENDPROC       XPDAT8_SET_GPIO_D2
  -------         PROC          XPDAT8_SET_KIN3
  -------         DO            
  D:0007H         SYMBOL        temp
  -------         ENDDO         
  C:DED4H         LINE#         3023
  C:DED4H         LINE#         3024
  C:DED4H         LINE#         3031
  C:DED9H         LINE#         3032
  C:DEDCH         LINE#         3033
  C:DEE0H         LINE#         3034
  -------         ENDPROC       XPDAT8_SET_KIN3
  -------         PROC          XPDAT2_SET_GPIO_D6
  -------         DO            
  D:0007H         SYMBOL        temp
  -------         ENDDO         
  C:DEE5H         LINE#         3036
  C:DEE5H         LINE#         3037
  C:DEE5H         LINE#         3044
  C:DEEAH         LINE#         3045
  C:DEEDH         LINE#         3046
  C:DEF1H         LINE#         3047
  -------         ENDPROC       XPDAT2_SET_GPIO_D6
  -------         PROC          XPDAT2_SET_KIN4
  -------         DO            
  D:0007H         SYMBOL        temp
  -------         ENDDO         
  C:DEF6H         LINE#         3049
  C:DEF6H         LINE#         3050
  C:DEF6H         LINE#         3057
  C:DEFBH         LINE#         3058
  C:DEFEH         LINE#         3059
  C:DF02H         LINE#         3060
  -------         ENDPROC       XPDAT2_SET_KIN4
  -------         PROC          XPDAT1_SET_GPIO_D1
  -------         DO            
  D:0007H         SYMBOL        temp
BL51 BANKED LINKER/LOCATER V6.22                                                      08/26/2015  16:38:21  PAGE 77


  -------         ENDDO         
  C:DF07H         LINE#         3062
  C:DF07H         LINE#         3063
  C:DF07H         LINE#         3070
  C:DF0CH         LINE#         3071
  C:DF0FH         LINE#         3072
  C:DF13H         LINE#         3073
  -------         ENDPROC       XPDAT1_SET_GPIO_D1
  -------         PROC          XPDAT1_SET_KIN2
  -------         DO            
  D:0007H         SYMBOL        temp
  -------         ENDDO         
  C:DF18H         LINE#         3075
  C:DF18H         LINE#         3076
  C:DF18H         LINE#         3083
  C:DF1DH         LINE#         3084
  C:DF20H         LINE#         3085
  C:DF24H         LINE#         3086
  -------         ENDPROC       XPDAT1_SET_KIN2
  -------         PROC          XPDAT0_SET_GPIO_D0
  -------         DO            
  D:0007H         SYMBOL        temp
  -------         ENDDO         
  C:DF29H         LINE#         3088
  C:DF29H         LINE#         3089
  C:DF29H         LINE#         3096
  C:DF2EH         LINE#         3097
  C:DF31H         LINE#         3098
  C:DF35H         LINE#         3099
  -------         ENDPROC       XPDAT0_SET_GPIO_D0
  -------         PROC          XPDAT0_SET_KIN1
  -------         DO            
  D:0007H         SYMBOL        temp
  -------         ENDDO         
  C:DF3AH         LINE#         3101
  C:DF3AH         LINE#         3102
  C:DF3AH         LINE#         3109
  C:DF3FH         LINE#         3110
  C:DF42H         LINE#         3111
  C:DF46H         LINE#         3112
  -------         ENDPROC       XPDAT0_SET_KIN1
  -------         PROC          ENABLE_PIP1
  -------         DO            
  D:0007H         SYMBOL        temp
  -------         ENDDO         
  C:DF4BH         LINE#         3116
  C:DF4BH         LINE#         3117
  C:DF4BH         LINE#         3125
  C:DF50H         LINE#         3126
  C:DF53H         LINE#         3127
  C:DF57H         LINE#         3128
  -------         ENDPROC       ENABLE_PIP1
  -------         PROC          DISABLE_PIP1
  -------         DO            
  D:0007H         SYMBOL        temp
  -------         ENDDO         
  C:DF5CH         LINE#         3130
BL51 BANKED LINKER/LOCATER V6.22                                                      08/26/2015  16:38:21  PAGE 78


  C:DF5CH         LINE#         3131
  C:DF5CH         LINE#         3139
  C:DF61H         LINE#         3140
  C:DF64H         LINE#         3141
  C:DF68H         LINE#         3142
  -------         ENDPROC       DISABLE_PIP1
  -------         PROC          ENABLE_PIP2
  -------         DO            
  D:0007H         SYMBOL        temp
  -------         ENDDO         
  C:DF6DH         LINE#         3144
  C:DF6DH         LINE#         3145
  C:DF6DH         LINE#         3153
  C:DF72H         LINE#         3154
  C:DF75H         LINE#         3155
  C:DF79H         LINE#         3156
  -------         ENDPROC       ENABLE_PIP2
  -------         PROC          DISABLE_PIP2
  -------         DO            
  D:0007H         SYMBOL        temp
  -------         ENDDO         
  C:DF7EH         LINE#         3158
  C:DF7EH         LINE#         3159
  C:DF7EH         LINE#         3167
  C:DF83H         LINE#         3168
  C:DF86H         LINE#         3169
  C:DF8AH         LINE#         3170
  -------         ENDPROC       DISABLE_PIP2
  -------         PROC          SELECT_PIP1_PARAMETER
  -------         DO            
  D:0007H         SYMBOL        temp
  -------         ENDDO         
  C:DF8FH         LINE#         3172
  C:DF8FH         LINE#         3173
  C:DF8FH         LINE#         3179
  C:DF94H         LINE#         3180
  C:DF97H         LINE#         3181
  C:DF9BH         LINE#         3182
  -------         ENDPROC       SELECT_PIP1_PARAMETER
  C:C801H         SYMBOL        L?1103
  -------         PROC          L?1102
  -------         ENDPROC       L?1102
  C:C801H         SYMBOL        L?1103
  -------         PROC          SELECT_PIP2_PARAMETER
  -------         DO            
  D:0007H         SYMBOL        temp
  -------         ENDDO         
  C:C80CH         LINE#         3184
  C:C80CH         LINE#         3185
  C:C80CH         LINE#         3191
  C:C811H         LINE#         3192
  C:C814H         LINE#         3193
  C:C818H         LINE#         3194
  -------         ENDPROC       SELECT_PIP2_PARAMETER
  -------         PROC          SELECT_MAIN_WINDOW_8BPP
  -------         DO            
  D:0007H         SYMBOL        temp
BL51 BANKED LINKER/LOCATER V6.22                                                      08/26/2015  16:38:21  PAGE 79


  -------         ENDDO         
  C:D4F6H         LINE#         3196
  C:D4F6H         LINE#         3197
  C:D4F6H         LINE#         3205
  C:D4FBH         LINE#         3206
  C:D4FEH         LINE#         3207
  C:D501H         LINE#         3208
  C:D504H         LINE#         3209
  -------         ENDPROC       SELECT_MAIN_WINDOW_8BPP
  -------         PROC          SELECT_MAIN_WINDOW_16BPP
  -------         DO            
  D:0007H         SYMBOL        temp
  -------         ENDDO         
  C:D509H         LINE#         3211
  C:D509H         LINE#         3212
  C:D509H         LINE#         3220
  C:D50EH         LINE#         3221
  C:D511H         LINE#         3222
  C:D514H         LINE#         3223
  C:D517H         LINE#         3224
  -------         ENDPROC       SELECT_MAIN_WINDOW_16BPP
  -------         PROC          SELECT_MAIN_WINDOW_24BPP
  -------         DO            
  D:0007H         SYMBOL        temp
  -------         ENDDO         
  C:DFA0H         LINE#         3226
  C:DFA0H         LINE#         3227
  C:DFA0H         LINE#         3235
  C:DFA5H         LINE#         3236
  C:DFA8H         LINE#         3237
  C:DFACH         LINE#         3239
  -------         ENDPROC       SELECT_MAIN_WINDOW_24BPP
  -------         PROC          SELECT_PIP2_WINDOW_8BPP
  -------         DO            
  D:0007H         SYMBOL        temp
  -------         ENDDO         
  C:D51CH         LINE#         3242
  C:D51CH         LINE#         3243
  C:D51CH         LINE#         3251
  C:D521H         LINE#         3252
  C:D524H         LINE#         3253
  C:D527H         LINE#         3254
  C:D52AH         LINE#         3255
  -------         ENDPROC       SELECT_PIP2_WINDOW_8BPP
  -------         PROC          SELECT_PIP2_WINDOW_16BPP
  -------         DO            
  D:0007H         SYMBOL        temp
  -------         ENDDO         
  C:D52FH         LINE#         3257
  C:D52FH         LINE#         3258
  C:D52FH         LINE#         3266
  C:D534H         LINE#         3267
  C:D537H         LINE#         3268
  C:D53AH         LINE#         3269
  C:D53DH         LINE#         3270
  -------         ENDPROC       SELECT_PIP2_WINDOW_16BPP
  -------         PROC          SELECT_PIP2_WINDOW_24BPP
BL51 BANKED LINKER/LOCATER V6.22                                                      08/26/2015  16:38:21  PAGE 80


  -------         DO            
  D:0007H         SYMBOL        temp
  -------         ENDDO         
  C:D542H         LINE#         3272
  C:D542H         LINE#         3273
  C:D542H         LINE#         3281
  C:D547H         LINE#         3282
  C:D54AH         LINE#         3283
  C:D54DH         LINE#         3284
  C:D550H         LINE#         3285
  -------         ENDPROC       SELECT_PIP2_WINDOW_24BPP
  -------         PROC          SELECT_PIP1_WINDOW_8BPP
  -------         DO            
  D:0007H         SYMBOL        temp
  -------         ENDDO         
  C:D555H         LINE#         3287
  C:D555H         LINE#         3288
  C:D555H         LINE#         3296
  C:D55AH         LINE#         3297
  C:D55DH         LINE#         3298
  C:D560H         LINE#         3299
  C:D563H         LINE#         3300
  -------         ENDPROC       SELECT_PIP1_WINDOW_8BPP
  -------         PROC          SELECT_PIP1_WINDOW_16BPP
  -------         DO            
  D:0007H         SYMBOL        temp
  -------         ENDDO         
  C:D568H         LINE#         3302
  C:D568H         LINE#         3303
  C:D568H         LINE#         3311
  C:D56DH         LINE#         3312
  C:D570H         LINE#         3313
  C:D573H         LINE#         3314
  C:D576H         LINE#         3315
  -------         ENDPROC       SELECT_PIP1_WINDOW_16BPP
  -------         PROC          SELECT_PIP1_WINDOW_24BPP
  -------         DO            
  D:0007H         SYMBOL        temp
  -------         ENDDO         
  C:D57BH         LINE#         3317
  C:D57BH         LINE#         3318
  C:D57BH         LINE#         3326
  C:D580H         LINE#         3327
  C:D583H         LINE#         3328
  C:D586H         LINE#         3329
  C:D589H         LINE#         3330
  -------         ENDPROC       SELECT_PIP1_WINDOW_24BPP
  -------         PROC          PCLK_RISING
  -------         DO            
  D:0007H         SYMBOL        temp
  -------         ENDDO         
  C:E7A8H         LINE#         3334
  C:E7A8H         LINE#         3335
  C:E7A8H         LINE#         3342
  C:E7A8H         LINE#         3343
  C:E7ABH         LINE#         3344
  C:E7AFH         LINE#         3345
BL51 BANKED LINKER/LOCATER V6.22                                                      08/26/2015  16:38:21  PAGE 81


  -------         ENDPROC       PCLK_RISING
  -------         PROC          PCLK_FALLING
  -------         DO            
  D:0007H         SYMBOL        temp
  -------         ENDDO         
  C:E7B4H         LINE#         3347
  C:E7B4H         LINE#         3348
  C:E7B4H         LINE#         3355
  C:E7B4H         LINE#         3356
  C:E7B7H         LINE#         3357
  C:E7BBH         LINE#         3358
  -------         ENDPROC       PCLK_FALLING
  -------         PROC          DISPLAY_ON
  -------         DO            
  D:0007H         SYMBOL        temp
  -------         ENDDO         
  C:E7C0H         LINE#         3360
  C:E7C0H         LINE#         3361
  C:E7C0H         LINE#         3369
  C:E7C0H         LINE#         3370
  C:E7C3H         LINE#         3371
  C:E7C7H         LINE#         3372
  -------         ENDPROC       DISPLAY_ON
  -------         PROC          DISPLAY_OFF
  -------         DO            
  D:0007H         SYMBOL        temp
  -------         ENDDO         
  C:E7CCH         LINE#         3375
  C:E7CCH         LINE#         3376
  C:E7CCH         LINE#         3384
  C:E7CCH         LINE#         3385
  C:E7CFH         LINE#         3386
  C:E7D3H         LINE#         3387
  -------         ENDPROC       DISPLAY_OFF
  -------         PROC          COLOR_BAR_ON
  -------         DO            
  D:0007H         SYMBOL        temp
  -------         ENDDO         
  C:E7D8H         LINE#         3389
  C:E7D8H         LINE#         3390
  C:E7D8H         LINE#         3398
  C:E7D8H         LINE#         3399
  C:E7DBH         LINE#         3400
  C:E7DFH         LINE#         3401
  -------         ENDPROC       COLOR_BAR_ON
  -------         PROC          COLOR_BAR_OFF
  -------         DO            
  D:0007H         SYMBOL        temp
  -------         ENDDO         
  C:E7E4H         LINE#         3403
  C:E7E4H         LINE#         3404
  C:E7E4H         LINE#         3412
  C:E7E4H         LINE#         3413
  C:E7E7H         LINE#         3414
  C:E7EBH         LINE#         3415
  -------         ENDPROC       COLOR_BAR_OFF
  -------         PROC          HSCAN_L_TO_R
BL51 BANKED LINKER/LOCATER V6.22                                                      08/26/2015  16:38:21  PAGE 82


  -------         DO            
  D:0007H         SYMBOL        temp
  -------         ENDDO         
  C:E7F0H         LINE#         3417
  C:E7F0H         LINE#         3418
  C:E7F0H         LINE#         3427
  C:E7F0H         LINE#         3428
  C:E7F3H         LINE#         3429
  C:E7F7H         LINE#         3430
  -------         ENDPROC       HSCAN_L_TO_R
  -------         PROC          HSCAN_R_TO_L
  -------         DO            
  D:0007H         SYMBOL        temp
  -------         ENDDO         
  C:E7FCH         LINE#         3432
  C:E7FCH         LINE#         3433
  C:E7FCH         LINE#         3442
  C:E7FCH         LINE#         3443
  C:E7FFH         LINE#         3444
  C:E803H         LINE#         3445
  -------         ENDPROC       HSCAN_R_TO_L
  -------         PROC          VSCAN_T_TO_B
  -------         DO            
  D:0007H         SYMBOL        temp
  -------         ENDDO         
  C:E808H         LINE#         3447
  C:E808H         LINE#         3448
  C:E808H         LINE#         3457
  C:E808H         LINE#         3458
  C:E80BH         LINE#         3459
  C:E80FH         LINE#         3460
  -------         ENDPROC       VSCAN_T_TO_B
  -------         PROC          VSCAN_B_TO_T
  -------         DO            
  D:0007H         SYMBOL        temp
  -------         ENDDO         
  C:E814H         LINE#         3462
  C:E814H         LINE#         3463
  C:E814H         LINE#         3472
  C:E814H         LINE#         3473
  C:E817H         LINE#         3474
  C:E81BH         LINE#         3475
  -------         ENDPROC       VSCAN_B_TO_T
  -------         PROC          PDATA_SET_RGB
  -------         DO            
  D:0007H         SYMBOL        temp
  -------         ENDDO         
  C:E820H         LINE#         3477
  C:E820H         LINE#         3478
  C:E820H         LINE#         3490
  C:E820H         LINE#         3491
  C:E823H         LINE#         3492
  C:E827H         LINE#         3493
  -------         ENDPROC       PDATA_SET_RGB
  -------         PROC          PDATA_SET_RBG
  -------         DO            
  D:0007H         SYMBOL        temp
BL51 BANKED LINKER/LOCATER V6.22                                                      08/26/2015  16:38:21  PAGE 83


  -------         ENDDO         
  C:E623H         LINE#         3495
  C:E623H         LINE#         3496
  C:E623H         LINE#         3508
  C:E623H         LINE#         3509
  C:E626H         LINE#         3510
  C:E629H         LINE#         3511
  C:E62CH         LINE#         3512
  -------         ENDPROC       PDATA_SET_RBG
  -------         PROC          PDATA_SET_GRB
  -------         DO            
  D:0007H         SYMBOL        temp
  -------         ENDDO         
  C:E631H         LINE#         3514
  C:E631H         LINE#         3515
  C:E631H         LINE#         3527
  C:E631H         LINE#         3528
  C:E634H         LINE#         3529
  C:E637H         LINE#         3530
  C:E63AH         LINE#         3531
  -------         ENDPROC       PDATA_SET_GRB
  -------         PROC          PDATA_SET_GBR
  -------         DO            
  D:0007H         SYMBOL        temp
  -------         ENDDO         
  C:E533H         LINE#         3533
  C:E533H         LINE#         3534
  C:E533H         LINE#         3546
  C:E533H         LINE#         3547
  C:E536H         LINE#         3548
  C:E539H         LINE#         3549
  C:E53BH         LINE#         3550
  C:E53EH         LINE#         3551
  -------         ENDPROC       PDATA_SET_GBR
  -------         PROC          PDATA_SET_BRG
  -------         DO            
  D:0007H         SYMBOL        temp
  -------         ENDDO         
  C:E63FH         LINE#         3553
  C:E63FH         LINE#         3554
  C:E63FH         LINE#         3566
  C:E63FH         LINE#         3567
  C:E642H         LINE#         3568
  C:E645H         LINE#         3569
  C:E648H         LINE#         3570
  -------         ENDPROC       PDATA_SET_BRG
  -------         PROC          PDATA_SET_BGR
  -------         DO            
  D:0007H         SYMBOL        temp
  -------         ENDDO         
  C:E543H         LINE#         3572
  C:E543H         LINE#         3573
  C:E543H         LINE#         3585
  C:E543H         LINE#         3586
  C:E546H         LINE#         3587
  C:E549H         LINE#         3588
  C:E54BH         LINE#         3589
BL51 BANKED LINKER/LOCATER V6.22                                                      08/26/2015  16:38:21  PAGE 84


  C:E54EH         LINE#         3590
  -------         ENDPROC       PDATA_SET_BGR
  -------         PROC          PDATA_IDLE_STATE
  -------         DO            
  D:0007H         SYMBOL        temp
  -------         ENDDO         
  C:E82CH         LINE#         3593
  C:E82CH         LINE#         3594
  C:E82CH         LINE#         3597
  C:E82CH         LINE#         3598
  C:E82FH         LINE#         3599
  C:E833H         LINE#         3600
  -------         ENDPROC       PDATA_IDLE_STATE
  -------         PROC          HSYNC_LOW_ACTIVE
  -------         DO            
  D:0007H         SYMBOL        temp
  -------         ENDDO         
  C:DFB1H         LINE#         3606
  C:DFB1H         LINE#         3607
  C:DFB1H         LINE#         3615
  C:DFB6H         LINE#         3616
  C:DFB9H         LINE#         3617
  C:DFBDH         LINE#         3618
  -------         ENDPROC       HSYNC_LOW_ACTIVE
  -------         PROC          HSYNC_HIGH_ACTIVE
  -------         DO            
  D:0007H         SYMBOL        temp
  -------         ENDDO         
  C:DFC2H         LINE#         3620
  C:DFC2H         LINE#         3621
  C:DFC2H         LINE#         3629
  C:DFC7H         LINE#         3630
  C:DFCAH         LINE#         3631
  C:DFCEH         LINE#         3632
  -------         ENDPROC       HSYNC_HIGH_ACTIVE
  -------         PROC          VSYNC_LOW_ACTIVE
  -------         DO            
  D:0007H         SYMBOL        temp
  -------         ENDDO         
  C:DFD3H         LINE#         3634
  C:DFD3H         LINE#         3635
  C:DFD3H         LINE#         3643
  C:DFD8H         LINE#         3644
  C:DFDBH         LINE#         3645
  C:DFDFH         LINE#         3646
  -------         ENDPROC       VSYNC_LOW_ACTIVE
  -------         PROC          VSYNC_HIGH_ACTIVE
  -------         DO            
  D:0007H         SYMBOL        temp
  -------         ENDDO         
  C:DFE4H         LINE#         3648
  C:DFE4H         LINE#         3649
  C:DFE4H         LINE#         3657
  C:DFE9H         LINE#         3658
  C:DFECH         LINE#         3659
  C:DFF0H         LINE#         3660
  -------         ENDPROC       VSYNC_HIGH_ACTIVE
BL51 BANKED LINKER/LOCATER V6.22                                                      08/26/2015  16:38:21  PAGE 85


  -------         PROC          DE_LOW_ACTIVE
  -------         DO            
  D:0007H         SYMBOL        temp
  -------         ENDDO         
  C:DFF5H         LINE#         3662
  C:DFF5H         LINE#         3663
  C:DFF5H         LINE#         3671
  C:DFFAH         LINE#         3672
  C:DFFDH         LINE#         3673
  C:E001H         LINE#         3674
  -------         ENDPROC       DE_LOW_ACTIVE
  -------         PROC          DE_HIGH_ACTIVE
  -------         DO            
  D:0007H         SYMBOL        temp
  -------         ENDDO         
  C:E006H         LINE#         3676
  C:E006H         LINE#         3677
  C:E006H         LINE#         3685
  C:E00BH         LINE#         3686
  C:E00EH         LINE#         3687
  C:E012H         LINE#         3688
  -------         ENDPROC       DE_HIGH_ACTIVE
  -------         PROC          IDLE_DE_LOW
  -------         DO            
  D:0007H         SYMBOL        temp
  -------         ENDDO         
  C:E017H         LINE#         3690
  C:E017H         LINE#         3691
  C:E017H         LINE#         3699
  C:E01CH         LINE#         3700
  C:E01FH         LINE#         3701
  C:E023H         LINE#         3702
  -------         ENDPROC       IDLE_DE_LOW
  -------         PROC          IDLE_DE_HIGH
  -------         DO            
  D:0007H         SYMBOL        temp
  -------         ENDDO         
  C:E028H         LINE#         3704
  C:E028H         LINE#         3705
  C:E028H         LINE#         3713
  C:E02DH         LINE#         3714
  C:E030H         LINE#         3715
  C:E034H         LINE#         3716
  -------         ENDPROC       IDLE_DE_HIGH
  -------         PROC          IDLE_PCLK_LOW
  -------         DO            
  D:0007H         SYMBOL        temp
  -------         ENDDO         
  C:E039H         LINE#         3718
  C:E039H         LINE#         3719
  C:E039H         LINE#         3727
  C:E03EH         LINE#         3728
  C:E041H         LINE#         3729
  C:E045H         LINE#         3730
  -------         ENDPROC       IDLE_PCLK_LOW
  -------         PROC          IDLE_PCLK_HIGH
  -------         DO            
BL51 BANKED LINKER/LOCATER V6.22                                                      08/26/2015  16:38:21  PAGE 86


  D:0007H         SYMBOL        temp
  -------         ENDDO         
  C:E04AH         LINE#         3732
  C:E04AH         LINE#         3733
  C:E04AH         LINE#         3741
  C:E04FH         LINE#         3742
  C:E052H         LINE#         3743
  C:E056H         LINE#         3744
  -------         ENDPROC       IDLE_PCLK_HIGH
  -------         PROC          IDLE_PDAT_LOW
  -------         DO            
  D:0007H         SYMBOL        temp
  -------         ENDDO         
  C:E05BH         LINE#         3746
  C:E05BH         LINE#         3747
  C:E05BH         LINE#         3755
  C:E060H         LINE#         3756
  C:E063H         LINE#         3757
  C:E067H         LINE#         3758
  -------         ENDPROC       IDLE_PDAT_LOW
  -------         PROC          IDLE_PDAT_HIGH
  -------         DO            
  D:0007H         SYMBOL        temp
  -------         ENDDO         
  C:E06CH         LINE#         3760
  C:E06CH         LINE#         3761
  C:E06CH         LINE#         3769
  C:E071H         LINE#         3770
  C:E074H         LINE#         3771
  C:E078H         LINE#         3772
  -------         ENDPROC       IDLE_PDAT_HIGH
  -------         PROC          IDLE_HSYNC_LOW
  -------         DO            
  D:0007H         SYMBOL        temp
  -------         ENDDO         
  C:E07DH         LINE#         3774
  C:E07DH         LINE#         3775
  C:E07DH         LINE#         3783
  C:E082H         LINE#         3784
  C:E085H         LINE#         3785
  C:E089H         LINE#         3786
  -------         ENDPROC       IDLE_HSYNC_LOW
  -------         PROC          IDLE_HSYNC_HIGH
  -------         DO            
  D:0007H         SYMBOL        temp
  -------         ENDDO         
  C:E08EH         LINE#         3788
  C:E08EH         LINE#         3789
  C:E08EH         LINE#         3797
  C:E093H         LINE#         3798
  C:E096H         LINE#         3799
  C:E09AH         LINE#         3800
  -------         ENDPROC       IDLE_HSYNC_HIGH
  -------         PROC          IDLE_VSYNC_LOW
  -------         DO            
  D:0007H         SYMBOL        temp
  -------         ENDDO         
BL51 BANKED LINKER/LOCATER V6.22                                                      08/26/2015  16:38:21  PAGE 87


  C:E09FH         LINE#         3802
  C:E09FH         LINE#         3803
  C:E09FH         LINE#         3811
  C:E0A4H         LINE#         3812
  C:E0A7H         LINE#         3813
  C:E0ABH         LINE#         3814
  -------         ENDPROC       IDLE_VSYNC_LOW
  -------         PROC          IDLE_VSYNC_HIGH
  -------         DO            
  D:0007H         SYMBOL        temp
  -------         ENDDO         
  C:E0B0H         LINE#         3816
  C:E0B0H         LINE#         3817
  C:E0B0H         LINE#         3825
  C:E0B5H         LINE#         3826
  C:E0B8H         LINE#         3827
  C:E0BCH         LINE#         3828
  -------         ENDPROC       IDLE_VSYNC_HIGH
  -------         PROC          _LCD_HORIZONTALWIDTH_VERTICALHEIGHT
  X:0213H         SYMBOL        WX
  D:0004H         SYMBOL        HY
  -------         DO            
  D:0003H         SYMBOL        temp
  -------         ENDDO         
  C:BA75H         LINE#         3832
  C:BA7DH         LINE#         3833
  C:BA7DH         LINE#         3847
  C:BA85H         LINE#         3848
  C:BA85H         LINE#         3849
  C:BA8AH         LINE#         3850
  C:BA90H         LINE#         3852
  C:BA95H         LINE#         3853
  C:BAA0H         LINE#         3855
  C:BAA3H         LINE#         3856
  C:BAA8H         LINE#         3857
  C:BAABH         LINE#         3859
  C:BAABH         LINE#         3860
  C:BAABH         LINE#         3861
  C:BAABH         LINE#         3862
  C:BAADH         LINE#         3864
  C:BAADH         LINE#         3865
  C:BABFH         LINE#         3866
  C:BAC4H         LINE#         3867
  C:BACAH         LINE#         3869
  C:BAD1H         LINE#         3870
  C:BAD6H         LINE#         3871
  C:BADAH         LINE#         3873
  C:BADDH         LINE#         3874
  C:BAE2H         LINE#         3875
  C:BAE6H         LINE#         3877
  C:BAEDH         LINE#         3878
  C:BAF2H         LINE#         3879
  C:BAF8H         LINE#         3880
  C:BAF8H         LINE#         3881
  -------         ENDPROC       _LCD_HORIZONTALWIDTH_VERTICALHEIGHT
  -------         PROC          _LCD_HORIZONTAL_NON_DISPLAY
  D:0004H         SYMBOL        WX
BL51 BANKED LINKER/LOCATER V6.22                                                      08/26/2015  16:38:21  PAGE 88


  -------         DO            
  D:0006H         SYMBOL        temp
  -------         ENDDO         
  C:C37BH         LINE#         3883
  C:C37FH         LINE#         3884
  C:C37FH         LINE#         3898
  C:C388H         LINE#         3899
  C:C388H         LINE#         3900
  C:C38DH         LINE#         3901
  C:C393H         LINE#         3903
  C:C398H         LINE#         3904
  C:C39CH         LINE#         3905
  C:C39EH         LINE#         3907
  C:C39EH         LINE#         3908
  C:C3ACH         LINE#         3909
  C:C3B1H         LINE#         3910
  C:C3B7H         LINE#         3912
  C:C3BBH         LINE#         3913
  C:C3C0H         LINE#         3914
  C:C3C6H         LINE#         3915
  C:C3C6H         LINE#         3916
  -------         ENDPROC       _LCD_HORIZONTAL_NON_DISPLAY
  -------         PROC          _LCD_HSYNC_START_POSITION
  D:0004H         SYMBOL        WX
  -------         DO            
  D:0006H         SYMBOL        temp
  -------         ENDDO         
  C:CB23H         LINE#         3918
  C:CB27H         LINE#         3919
  C:CB27H         LINE#         3928
  C:CB30H         LINE#         3929
  C:CB30H         LINE#         3930
  C:CB35H         LINE#         3931
  C:CB38H         LINE#         3932
  C:CB3AH         LINE#         3934
  C:CB3AH         LINE#         3935
  C:CB48H         LINE#         3936
  C:CB4DH         LINE#         3937
  C:CB53H         LINE#         3938
  C:CB53H         LINE#         3939
  -------         ENDPROC       _LCD_HSYNC_START_POSITION
  -------         PROC          _LCD_HSYNC_PULSE_WIDTH
  D:0004H         SYMBOL        WX
  -------         DO            
  D:0006H         SYMBOL        temp
  -------         ENDDO         
  C:CB54H         LINE#         3941
  C:CB58H         LINE#         3942
  C:CB58H         LINE#         3949
  C:CB61H         LINE#         3950
  C:CB61H         LINE#         3951
  C:CB66H         LINE#         3952
  C:CB69H         LINE#         3953
  C:CB6BH         LINE#         3955
  C:CB6BH         LINE#         3956
  C:CB79H         LINE#         3957
  C:CB7EH         LINE#         3958
BL51 BANKED LINKER/LOCATER V6.22                                                      08/26/2015  16:38:21  PAGE 89


  C:CB84H         LINE#         3959
  C:CB84H         LINE#         3960
  -------         ENDPROC       _LCD_HSYNC_PULSE_WIDTH
  -------         PROC          _LCD_VERTICAL_NON_DISPLAY
  D:0006H         SYMBOL        HY
  -------         DO            
  D:0005H         SYMBOL        temp
  -------         ENDDO         
  C:D11BH         LINE#         3962
  C:D11BH         LINE#         3963
  C:D11BH         LINE#         3972
  C:D11EH         LINE#         3973
  C:D123H         LINE#         3974
  C:D129H         LINE#         3976
  C:D12EH         LINE#         3977
  -------         ENDPROC       _LCD_VERTICAL_NON_DISPLAY
  -------         PROC          _LCD_VSYNC_START_POSITION
  D:0006H         SYMBOL        HY
  -------         DO            
  D:0006H         SYMBOL        temp
  -------         ENDDO         
  C:E64DH         LINE#         3980
  C:E64DH         LINE#         3981
  C:E64DH         LINE#         3988
  C:E650H         LINE#         3989
  C:E655H         LINE#         3990
  -------         ENDPROC       _LCD_VSYNC_START_POSITION
  -------         PROC          _LCD_VSYNC_PULSE_WIDTH
  D:0006H         SYMBOL        HY
  -------         DO            
  D:0006H         SYMBOL        temp
  -------         ENDDO         
  C:E65BH         LINE#         3993
  C:E65BH         LINE#         3994
  C:E65BH         LINE#         4001
  C:E65EH         LINE#         4002
  C:E663H         LINE#         4003
  -------         ENDPROC       _LCD_VSYNC_PULSE_WIDTH
  C:BE5AH         SYMBOL        L?1148
  -------         PROC          L?1147
  -------         ENDPROC       L?1147
  C:BE5AH         SYMBOL        L?1148
  -------         PROC          _MAIN_IMAGE_START_ADDRESS
  X:0243H         SYMBOL        Addr
  C:BE62H         LINE#         4006
  C:BE68H         LINE#         4007
  C:BE68H         LINE#         4014
  C:BE70H         LINE#         4015
  C:BE8AH         LINE#         4016
  C:BEA4H         LINE#         4017
  -------         ENDPROC       _MAIN_IMAGE_START_ADDRESS
  -------         PROC          _MAIN_IMAGE_WIDTH
  D:0002H         SYMBOL        WX
  C:D8ABH         LINE#         4020
  C:D8AFH         LINE#         4021
  C:D8AFH         LINE#         4029
  C:D8B6H         LINE#         4030
BL51 BANKED LINKER/LOCATER V6.22                                                      08/26/2015  16:38:21  PAGE 90


  -------         ENDPROC       _MAIN_IMAGE_WIDTH
  C:C4D9H         SYMBOL        L?1083
  C:C4E4H         SYMBOL        L?1084
  C:C4E6H         SYMBOL        L?1085
  C:C4E8H         SYMBOL        L?1086
  C:C4EBH         SYMBOL        L?1087
  -------         PROC          L?1082
  -------         ENDPROC       L?1082
  C:C4D9H         SYMBOL        L?1083
  C:C4E4H         SYMBOL        L?1084
  C:C4E6H         SYMBOL        L?1085
  C:C4E8H         SYMBOL        L?1086
  C:C4EBH         SYMBOL        L?1087
  -------         PROC          _MAIN_WINDOW_START_XY
  X:0241H         SYMBOL        WX
  D:0002H         SYMBOL        HY
  C:C4F0H         LINE#         4033
  C:C4FCH         LINE#         4034
  C:C4FCH         LINE#         4049
  C:C502H         LINE#         4050
  C:C50CH         LINE#         4052
  C:C513H         LINE#         4053
  -------         ENDPROC       _MAIN_WINDOW_START_XY
  -------         PROC          _PIP_DISPLAY_START_XY
  X:023FH         SYMBOL        WX
  D:0002H         SYMBOL        HY
  C:CDDEH         LINE#         4056
  C:CDEAH         LINE#         4057
  C:CDEAH         LINE#         4076
  C:CDF0H         LINE#         4077
  C:CDFAH         LINE#         4079
  C:CE01H         LINE#         4080
  -------         ENDPROC       _PIP_DISPLAY_START_XY
  -------         PROC          _PIP_IMAGE_START_ADDRESS
  X:021DH         SYMBOL        Addr
  C:BF22H         LINE#         4083
  C:BF28H         LINE#         4084
  C:BF28H         LINE#         4091
  C:BF35H         LINE#         4092
  C:BF4FH         LINE#         4093
  C:BF69H         LINE#         4094
  -------         ENDPROC       _PIP_IMAGE_START_ADDRESS
  -------         PROC          _PIP_IMAGE_WIDTH
  D:0002H         SYMBOL        WX
  C:D8BDH         LINE#         4097
  C:D8C1H         LINE#         4098
  C:D8C1H         LINE#         4109
  C:D8C8H         LINE#         4110
  -------         ENDPROC       _PIP_IMAGE_WIDTH
  -------         PROC          L?1137
  -------         ENDPROC       L?1137
  -------         PROC          _PIP_WINDOW_IMAGE_START_XY
  X:021BH         SYMBOL        WX
  D:0002H         SYMBOL        HY
  C:C3E2H         LINE#         4113
  C:C3EEH         LINE#         4114
  C:C3EEH         LINE#         4133
BL51 BANKED LINKER/LOCATER V6.22                                                      08/26/2015  16:38:21  PAGE 91


  C:C3F4H         LINE#         4134
  C:C3FEH         LINE#         4136
  C:C405H         LINE#         4137
  -------         ENDPROC       _PIP_WINDOW_IMAGE_START_XY
  -------         PROC          _PIP_WINDOW_WIDTH_HEIGHT
  X:021DH         SYMBOL        WX
  D:0002H         SYMBOL        HY
  C:CE08H         LINE#         4140
  C:CE14H         LINE#         4141
  C:CE14H         LINE#         4158
  C:CE1AH         LINE#         4159
  C:CE24H         LINE#         4161
  C:CE2BH         LINE#         4162
  -------         ENDPROC       _PIP_WINDOW_WIDTH_HEIGHT
  -------         PROC          ENABLE_GRAPHIC_CURSOR
  -------         DO            
  D:0007H         SYMBOL        temp
  -------         ENDDO         
  C:E0C1H         LINE#         4166
  C:E0C1H         LINE#         4167
  C:E0C1H         LINE#         4175
  C:E0C6H         LINE#         4176
  C:E0C9H         LINE#         4177
  C:E0CDH         LINE#         4178
  -------         ENDPROC       ENABLE_GRAPHIC_CURSOR
  -------         PROC          DISABLE_GRAPHIC_CURSOR
  -------         DO            
  D:0007H         SYMBOL        temp
  -------         ENDDO         
  C:E0D2H         LINE#         4180
  C:E0D2H         LINE#         4181
  C:E0D2H         LINE#         4189
  C:E0D7H         LINE#         4190
  C:E0DAH         LINE#         4191
  C:E0DEH         LINE#         4192
  -------         ENDPROC       DISABLE_GRAPHIC_CURSOR
  -------         PROC          SELECT_GRAPHIC_CURSOR_1
  -------         DO            
  D:0007H         SYMBOL        temp
  -------         ENDDO         
  C:D58EH         LINE#         4195
  C:D58EH         LINE#         4196
  C:D58EH         LINE#         4207
  C:D593H         LINE#         4208
  C:D596H         LINE#         4209
  C:D599H         LINE#         4210
  C:D59CH         LINE#         4211
  -------         ENDPROC       SELECT_GRAPHIC_CURSOR_1
  -------         PROC          L?1162
  -------         ENDPROC       L?1162
  -------         PROC          SELECT_GRAPHIC_CURSOR_2
  -------         DO            
  D:0007H         SYMBOL        temp
  -------         ENDDO         
  C:D01EH         LINE#         4213
  C:D01EH         LINE#         4214
  C:D01EH         LINE#         4225
BL51 BANKED LINKER/LOCATER V6.22                                                      08/26/2015  16:38:21  PAGE 92


  C:D023H         LINE#         4226
  C:D026H         LINE#         4227
  C:D029H         LINE#         4228
  C:D02CH         LINE#         4229
  -------         ENDPROC       SELECT_GRAPHIC_CURSOR_2
  -------         PROC          SELECT_GRAPHIC_CURSOR_3
  -------         DO            
  D:0007H         SYMBOL        temp
  -------         ENDDO         
  C:D5A1H         LINE#         4231
  C:D5A1H         LINE#         4232
  C:D5A1H         LINE#         4243
  C:D5A6H         LINE#         4244
  C:D5A9H         LINE#         4245
  C:D5ACH         LINE#         4246
  C:D5AFH         LINE#         4247
  -------         ENDPROC       SELECT_GRAPHIC_CURSOR_3
  -------         PROC          SELECT_GRAPHIC_CURSOR_4
  -------         DO            
  D:0007H         SYMBOL        temp
  -------         ENDDO         
  C:D5B4H         LINE#         4249
  C:D5B4H         LINE#         4250
  C:D5B4H         LINE#         4261
  C:D5B9H         LINE#         4262
  C:D5BCH         LINE#         4263
  C:D5BFH         LINE#         4264
  C:D5C2H         LINE#         4265
  -------         ENDPROC       SELECT_GRAPHIC_CURSOR_4
  -------         PROC          ENABLE_TEXT_CURSOR
  -------         DO            
  D:0007H         SYMBOL        temp
  -------         ENDDO         
  C:E0E3H         LINE#         4268
  C:E0E3H         LINE#         4269
  C:E0E3H         LINE#         4279
  C:E0E8H         LINE#         4280
  C:E0EBH         LINE#         4281
  C:E0EFH         LINE#         4282
  -------         ENDPROC       ENABLE_TEXT_CURSOR
  -------         PROC          DISABLE_TEXT_CURSOR
  -------         DO            
  D:0007H         SYMBOL        temp
  -------         ENDDO         
  C:E0F4H         LINE#         4284
  C:E0F4H         LINE#         4285
  C:E0F4H         LINE#         4295
  C:E0F9H         LINE#         4296
  C:E0FCH         LINE#         4297
  C:E100H         LINE#         4298
  -------         ENDPROC       DISABLE_TEXT_CURSOR
  -------         PROC          ENABLE_TEXT_CURSOR_BLINKING
  -------         DO            
  D:0007H         SYMBOL        temp
  -------         ENDDO         
  C:E105H         LINE#         4301
  C:E105H         LINE#         4302
BL51 BANKED LINKER/LOCATER V6.22                                                      08/26/2015  16:38:21  PAGE 93


  C:E105H         LINE#         4310
  C:E10AH         LINE#         4311
  C:E10DH         LINE#         4312
  C:E111H         LINE#         4313
  -------         ENDPROC       ENABLE_TEXT_CURSOR_BLINKING
  -------         PROC          DISABLE_TEXT_CURSOR_BLINKING
  -------         DO            
  D:0007H         SYMBOL        temp
  -------         ENDDO         
  C:E116H         LINE#         4315
  C:E116H         LINE#         4316
  C:E116H         LINE#         4324
  C:E11BH         LINE#         4325
  C:E11EH         LINE#         4326
  C:E122H         LINE#         4327
  -------         ENDPROC       DISABLE_TEXT_CURSOR_BLINKING
  -------         PROC          _BLINKING_TIME_FRAMES
  D:0006H         SYMBOL        temp
  C:E669H         LINE#         4330
  C:E66BH         LINE#         4331
  C:E66BH         LINE#         4340
  C:E670H         LINE#         4341
  -------         ENDPROC       _BLINKING_TIME_FRAMES
  -------         PROC          _TEXT_CURSOR_H_V
  D:0002H         SYMBOL        WX
  D:0004H         SYMBOL        HY
  C:D031H         LINE#         4344
  C:D035H         LINE#         4345
  C:D035H         LINE#         4360
  C:D03AH         LINE#         4361
  C:D03FH         LINE#         4362
  C:D044H         LINE#         4363
  -------         ENDPROC       _TEXT_CURSOR_H_V
  -------         PROC          L?1161
  -------         ENDPROC       L?1161
  -------         PROC          _GRAPHIC_CURSOR_XY
  X:0217H         SYMBOL        WX
  D:0002H         SYMBOL        HY
  C:CB8CH         LINE#         4366
  C:CB98H         LINE#         4367
  C:CB98H         LINE#         4375
  C:CB9EH         LINE#         4376
  C:CBA8H         LINE#         4378
  C:CBAFH         LINE#         4379
  -------         ENDPROC       _GRAPHIC_CURSOR_XY
  -------         PROC          _SET_GRAPHIC_CURSOR_COLOR_1
  D:0007H         SYMBOL        temp
  C:E93DH         LINE#         4382
  C:E93DH         LINE#         4383
  C:E93DH         LINE#         4388
  -------         ENDPROC       _SET_GRAPHIC_CURSOR_COLOR_1
  -------         PROC          L?1159
  -------         ENDPROC       L?1159
  -------         PROC          _SET_GRAPHIC_CURSOR_COLOR_2
  D:0007H         SYMBOL        temp
  C:E67EH         LINE#         4391
  C:E67EH         LINE#         4392
BL51 BANKED LINKER/LOCATER V6.22                                                      08/26/2015  16:38:21  PAGE 94


  C:E67EH         LINE#         4397
  -------         ENDPROC       _SET_GRAPHIC_CURSOR_COLOR_2
  C:BC4DH         SYMBOL        L?1112
  C:BC4FH         SYMBOL        L?1113
  -------         PROC          L?1111
  -------         ENDPROC       L?1111
  C:BC4DH         SYMBOL        L?1112
  C:BC4FH         SYMBOL        L?1113
  -------         PROC          _CANVAS_IMAGE_START_ADDRESS
  X:0241H         SYMBOL        Addr
  C:BC55H         LINE#         4400
  C:BC5BH         LINE#         4401
  C:BC5BH         LINE#         4408
  C:BC68H         LINE#         4409
  C:BC82H         LINE#         4410
  C:BC9CH         LINE#         4411
  -------         ENDPROC       _CANVAS_IMAGE_START_ADDRESS
  -------         PROC          _CANVAS_IMAGE_WIDTH
  D:0002H         SYMBOL        WX
  C:D8CFH         LINE#         4414
  C:D8D3H         LINE#         4415
  C:D8D3H         LINE#         4420
  C:D8DAH         LINE#         4421
  -------         ENDPROC       _CANVAS_IMAGE_WIDTH
  C:C88DH         SYMBOL        L?1118
  C:C88FH         SYMBOL        L?1119
  C:C892H         SYMBOL        L?1120
  -------         PROC          L?1117
  -------         ENDPROC       L?1117
  C:C88DH         SYMBOL        L?1118
  C:C88FH         SYMBOL        L?1119
  C:C892H         SYMBOL        L?1120
  -------         PROC          _ACTIVE_WINDOW_XY
  X:0241H         SYMBOL        WX
  D:0002H         SYMBOL        HY
  C:C897H         LINE#         4424
  C:C8A3H         LINE#         4425
  C:C8A3H         LINE#         4432
  C:C8A9H         LINE#         4433
  C:C8B3H         LINE#         4435
  C:C8BAH         LINE#         4436
  -------         ENDPROC       _ACTIVE_WINDOW_XY
  C:BEBEH         SYMBOL        L?1037
  C:BEDCH         SYMBOL        L?1038
  C:BEDEH         SYMBOL        L?1039
  C:BEE8H         SYMBOL        L?1040
  C:BEF0H         SYMBOL        L?1041
  -------         PROC          L?1036
  -------         ENDPROC       L?1036
  C:BEBEH         SYMBOL        L?1037
  C:BEDCH         SYMBOL        L?1038
  C:BEDEH         SYMBOL        L?1039
  C:BEE8H         SYMBOL        L?1040
  C:BEF0H         SYMBOL        L?1041
  -------         PROC          _ACTIVE_WINDOW_WH
  X:023FH         SYMBOL        WX
  D:0002H         SYMBOL        HY
BL51 BANKED LINKER/LOCATER V6.22                                                      08/26/2015  16:38:21  PAGE 95


  C:BEF8H         LINE#         4439
  C:BF04H         LINE#         4440
  C:BF04H         LINE#         4447
  C:BF0AH         LINE#         4448
  C:BF14H         LINE#         4450
  C:BF1BH         LINE#         4451
  -------         ENDPROC       _ACTIVE_WINDOW_WH
  -------         PROC          SELECT_WRITE_DATA_POSITION
  -------         DO            
  D:0007H         SYMBOL        temp
  -------         ENDDO         
  C:E127H         LINE#         4454
  C:E127H         LINE#         4455
  C:E127H         LINE#         4463
  C:E12CH         LINE#         4464
  C:E12FH         LINE#         4465
  C:E133H         LINE#         4466
  -------         ENDPROC       SELECT_WRITE_DATA_POSITION
  -------         PROC          SELECT_READ_DATA_POSITION
  -------         DO            
  D:0007H         SYMBOL        temp
  -------         ENDDO         
  C:E138H         LINE#         4468
  C:E138H         LINE#         4469
  C:E138H         LINE#         4477
  C:E13DH         LINE#         4478
  C:E140H         LINE#         4479
  C:E144H         LINE#         4480
  -------         ENDPROC       SELECT_READ_DATA_POSITION
  -------         PROC          MEMORY_XY_MODE
  -------         DO            
  D:0007H         SYMBOL        temp
  -------         ENDDO         
  C:E149H         LINE#         4482
  C:E149H         LINE#         4483
  C:E149H         LINE#         4491
  C:E14EH         LINE#         4492
  C:E151H         LINE#         4493
  C:E155H         LINE#         4494
  -------         ENDPROC       MEMORY_XY_MODE
  -------         PROC          MEMORY_LINEAR_MODE
  -------         DO            
  D:0007H         SYMBOL        temp
  -------         ENDDO         
  C:E15AH         LINE#         4496
  C:E15AH         LINE#         4497
  C:E15AH         LINE#         4505
  C:E15FH         LINE#         4506
  C:E162H         LINE#         4507
  C:E166H         LINE#         4508
  -------         ENDPROC       MEMORY_LINEAR_MODE
  -------         PROC          MEMORY_8BPP_MODE
  -------         DO            
  D:0007H         SYMBOL        temp
  -------         ENDDO         
  C:D5C7H         LINE#         4510
  C:D5C7H         LINE#         4511
BL51 BANKED LINKER/LOCATER V6.22                                                      08/26/2015  16:38:21  PAGE 96


  C:D5C7H         LINE#         4524
  C:D5CCH         LINE#         4525
  C:D5CFH         LINE#         4526
  C:D5D2H         LINE#         4527
  C:D5D5H         LINE#         4528
  -------         ENDPROC       MEMORY_8BPP_MODE
  -------         PROC          MEMORY_16BPP_MODE
  -------         DO            
  D:0007H         SYMBOL        temp
  -------         ENDDO         
  C:D5DAH         LINE#         4530
  C:D5DAH         LINE#         4531
  C:D5DAH         LINE#         4544
  C:D5DFH         LINE#         4545
  C:D5E2H         LINE#         4546
  C:D5E5H         LINE#         4547
  C:D5E8H         LINE#         4548
  -------         ENDPROC       MEMORY_16BPP_MODE
  -------         PROC          MEMORY_24BPP_MODE
  -------         DO            
  D:0007H         SYMBOL        temp
  -------         ENDDO         
  C:D5EDH         LINE#         4550
  C:D5EDH         LINE#         4551
  C:D5EDH         LINE#         4564
  C:D5F2H         LINE#         4565
  C:D5F5H         LINE#         4566
  C:D5F8H         LINE#         4567
  C:D5FBH         LINE#         4568
  -------         ENDPROC       MEMORY_24BPP_MODE
  C:C823H         SYMBOL        L?1144
  -------         PROC          L?1143
  -------         ENDPROC       L?1143
  C:C823H         SYMBOL        L?1144
  -------         PROC          _GOTO_PIXEL_XY
  X:021BH         SYMBOL        WX
  D:0002H         SYMBOL        HY
  C:C82AH         LINE#         4572
  C:C836H         LINE#         4573
  C:C836H         LINE#         4585
  C:C83CH         LINE#         4586
  C:C846H         LINE#         4588
  C:C84DH         LINE#         4589
  -------         ENDPROC       _GOTO_PIXEL_XY
  -------         PROC          _GOTO_LINEAR_ADDR
  X:027CH         SYMBOL        Addr
  C:C0A6H         LINE#         4591
  C:C0ACH         LINE#         4592
  C:C0ACH         LINE#         4593
  C:C0B4H         LINE#         4594
  C:C0CEH         LINE#         4595
  C:C0E8H         LINE#         4596
  -------         ENDPROC       _GOTO_LINEAR_ADDR
  C:CBB6H         SYMBOL        L?1074
  C:CBB8H         SYMBOL        L?1075
  -------         PROC          L?1073
  -------         ENDPROC       L?1073
BL51 BANKED LINKER/LOCATER V6.22                                                      08/26/2015  16:38:21  PAGE 97


  C:CBB6H         SYMBOL        L?1074
  C:CBB8H         SYMBOL        L?1075
  -------         PROC          _GOTO_TEXT_XY
  X:023DH         SYMBOL        WX
  D:0002H         SYMBOL        HY
  C:CBBDH         LINE#         4601
  C:CBC9H         LINE#         4602
  C:CBC9H         LINE#         4611
  C:CBCFH         LINE#         4612
  C:CBD9H         LINE#         4614
  C:CBE0H         LINE#         4615
  -------         ENDPROC       _GOTO_TEXT_XY
  C:C915H         SYMBOL        L?1109
  -------         PROC          L?1108
  -------         ENDPROC       L?1108
  C:C915H         SYMBOL        L?1109
  -------         PROC          START_LINE
  C:C91DH         LINE#         4633
  C:C91DH         LINE#         4634
  C:C91DH         LINE#         4635
  C:C922H         LINE#         4636
  C:C929H         LINE#         4637
  -------         ENDPROC       START_LINE
  -------         PROC          L?1101
  -------         ENDPROC       L?1101
  -------         PROC          START_TRIANGLE
  C:C234H         LINE#         4639
  C:C234H         LINE#         4640
  C:C234H         LINE#         4641
  C:C239H         LINE#         4642
  C:C240H         LINE#         4643
  -------         ENDPROC       START_TRIANGLE
  -------         PROC          START_TRIANGLE_FILL
  C:E562H         LINE#         4645
  C:E562H         LINE#         4646
  C:E562H         LINE#         4648
  C:E567H         LINE#         4649
  C:E56EH         LINE#         4650
  -------         ENDPROC       START_TRIANGLE_FILL
  C:CFE8H         SYMBOL        L?1077
  C:CFE9H         SYMBOL        L?1078
  C:CFEBH         SYMBOL        L?1079
  -------         PROC          L?1076
  -------         ENDPROC       L?1076
  C:CFE8H         SYMBOL        L?1077
  C:CFE9H         SYMBOL        L?1078
  C:CFEBH         SYMBOL        L?1079
  -------         PROC          _LINE_START_XY
  D:0002H         SYMBOL        WX
  D:0004H         SYMBOL        HY
  C:CFF3H         LINE#         4654
  C:CFF3H         LINE#         4655
  C:CFF3H         LINE#         4662
  C:CFF3H         LINE#         4663
  C:CFF3H         LINE#         4665
  C:CFF3H         LINE#         4666
  C:CFF3H         LINE#         4668
BL51 BANKED LINKER/LOCATER V6.22                                                      08/26/2015  16:38:21  PAGE 98


  C:CFF3H         LINE#         4669
  C:CFF3H         LINE#         4671
  C:CFF6H         LINE#         4672
  -------         ENDPROC       _LINE_START_XY
  C:BCBFH         SYMBOL        L?1058
  C:BCD7H         SYMBOL        L?1059
  C:BCE8H         SYMBOL        L?1060
  C:BCE9H         SYMBOL        L?1061
  -------         PROC          L?1057
  -------         ENDPROC       L?1057
  C:BCBFH         SYMBOL        L?1058
  C:BCD7H         SYMBOL        L?1059
  C:BCE8H         SYMBOL        L?1060
  C:BCE9H         SYMBOL        L?1061
  -------         PROC          _LINE_END_XY
  D:0002H         SYMBOL        WX
  D:0004H         SYMBOL        HY
  C:BCEDH         LINE#         4676
  C:BCF1H         LINE#         4677
  C:BCF1H         LINE#         4684
  C:BCF6H         LINE#         4685
  C:BCFBH         LINE#         4687
  C:BD00H         LINE#         4688
  C:BD07H         LINE#         4690
  C:BD0CH         LINE#         4691
  C:BD13H         LINE#         4693
  C:BD18H         LINE#         4694
  -------         ENDPROC       _LINE_END_XY
  -------         PROC          _TRIANGLE_POINT1_XY
  D:0002H         SYMBOL        WX
  D:0004H         SYMBOL        HY
  C:E867H         LINE#         4698
  C:E867H         LINE#         4699
  C:E867H         LINE#         4706
  C:E867H         LINE#         4707
  C:E867H         LINE#         4709
  C:E867H         LINE#         4710
  C:E867H         LINE#         4712
  C:E867H         LINE#         4713
  C:E867H         LINE#         4715
  C:E86AH         LINE#         4716
  -------         ENDPROC       _TRIANGLE_POINT1_XY
  -------         PROC          _TRIANGLE_POINT2_XY
  D:0002H         SYMBOL        WX
  D:0004H         SYMBOL        HY
  C:C993H         LINE#         4719
  C:C997H         LINE#         4720
  C:C997H         LINE#         4727
  C:C99CH         LINE#         4728
  C:C9A1H         LINE#         4730
  C:C9A6H         LINE#         4731
  C:C9ADH         LINE#         4733
  C:C9B2H         LINE#         4734
  C:C9B9H         LINE#         4736
  C:C9BEH         LINE#         4737
  -------         ENDPROC       _TRIANGLE_POINT2_XY
  -------         PROC          _TRIANGLE_POINT3_XY
BL51 BANKED LINKER/LOCATER V6.22                                                      08/26/2015  16:38:21  PAGE 99


  D:0002H         SYMBOL        WX
  D:0004H         SYMBOL        HY
  C:C9C5H         LINE#         4740
  C:C9C9H         LINE#         4741
  C:C9C9H         LINE#         4748
  C:C9CEH         LINE#         4749
  C:C9D3H         LINE#         4751
  C:C9D8H         LINE#         4752
  C:C9DFH         LINE#         4754
  C:C9E4H         LINE#         4755
  C:C9EBH         LINE#         4757
  C:C9F0H         LINE#         4758
  -------         ENDPROC       _TRIANGLE_POINT3_XY
  -------         PROC          _SQUARE_START_XY
  D:0002H         SYMBOL        WX
  D:0004H         SYMBOL        HY
  C:E871H         LINE#         4761
  C:E871H         LINE#         4762
  C:E871H         LINE#         4769
  C:E871H         LINE#         4770
  C:E871H         LINE#         4772
  C:E871H         LINE#         4773
  C:E871H         LINE#         4775
  C:E871H         LINE#         4776
  C:E871H         LINE#         4778
  C:E874H         LINE#         4779
  -------         ENDPROC       _SQUARE_START_XY
  -------         PROC          _SQUARE_END_XY
  D:0002H         SYMBOL        WX
  D:0004H         SYMBOL        HY
  C:C9F7H         LINE#         4782
  C:C9FBH         LINE#         4783
  C:C9FBH         LINE#         4790
  C:CA00H         LINE#         4791
  C:CA05H         LINE#         4793
  C:CA0AH         LINE#         4794
  C:CA11H         LINE#         4796
  C:CA16H         LINE#         4797
  C:CA1DH         LINE#         4799
  C:CA22H         LINE#         4800
  -------         ENDPROC       _SQUARE_END_XY
  -------         PROC          L?1149
  -------         ENDPROC       L?1149
  -------         PROC          START_CIRCLE_OR_ELLIPSE
  C:CFB6H         LINE#         4829
  C:CFB6H         LINE#         4830
  C:CFB6H         LINE#         4831
  C:CFBBH         LINE#         4832
  C:CFC2H         LINE#         4833
  -------         ENDPROC       START_CIRCLE_OR_ELLIPSE
  -------         PROC          START_CIRCLE_OR_ELLIPSE_FILL
  C:E571H         LINE#         4835
  C:E571H         LINE#         4836
  C:E571H         LINE#         4837
  C:E576H         LINE#         4838
  C:E57DH         LINE#         4839
  -------         ENDPROC       START_CIRCLE_OR_ELLIPSE_FILL
BL51 BANKED LINKER/LOCATER V6.22                                                      08/26/2015  16:38:21  PAGE 100


  -------         PROC          START_LEFT_DOWN_CURVE
  C:E580H         LINE#         4842
  C:E580H         LINE#         4843
  C:E580H         LINE#         4844
  C:E585H         LINE#         4845
  C:E58CH         LINE#         4846
  -------         ENDPROC       START_LEFT_DOWN_CURVE
  -------         PROC          START_LEFT_UP_CURVE
  C:E58FH         LINE#         4848
  C:E58FH         LINE#         4849
  C:E58FH         LINE#         4850
  C:E594H         LINE#         4851
  C:E59BH         LINE#         4852
  -------         ENDPROC       START_LEFT_UP_CURVE
  -------         PROC          START_RIGHT_UP_CURVE
  C:E59EH         LINE#         4854
  C:E59EH         LINE#         4855
  C:E59EH         LINE#         4856
  C:E5A3H         LINE#         4857
  C:E5AAH         LINE#         4858
  -------         ENDPROC       START_RIGHT_UP_CURVE
  -------         PROC          START_RIGHT_DOWN_CURVE
  C:E5ADH         LINE#         4860
  C:E5ADH         LINE#         4861
  C:E5ADH         LINE#         4862
  C:E5B2H         LINE#         4863
  C:E5B9H         LINE#         4864
  -------         ENDPROC       START_RIGHT_DOWN_CURVE
  -------         PROC          START_LEFT_DOWN_CURVE_FILL
  C:E5BCH         LINE#         4867
  C:E5BCH         LINE#         4868
  C:E5BCH         LINE#         4869
  C:E5C1H         LINE#         4870
  C:E5C8H         LINE#         4871
  -------         ENDPROC       START_LEFT_DOWN_CURVE_FILL
  -------         PROC          START_LEFT_UP_CURVE_FILL
  C:E5CBH         LINE#         4873
  C:E5CBH         LINE#         4874
  C:E5CBH         LINE#         4875
  C:E5D0H         LINE#         4876
  C:E5D7H         LINE#         4877
  -------         ENDPROC       START_LEFT_UP_CURVE_FILL
  -------         PROC          START_RIGHT_UP_CURVE_FILL
  C:E5DAH         LINE#         4879
  C:E5DAH         LINE#         4880
  C:E5DAH         LINE#         4881
  C:E5DFH         LINE#         4882
  C:E5E6H         LINE#         4883
  -------         ENDPROC       START_RIGHT_UP_CURVE_FILL
  -------         PROC          START_RIGHT_DOWN_CURVE_FILL
  C:E5E9H         LINE#         4885
  C:E5E9H         LINE#         4886
  C:E5E9H         LINE#         4887
  C:E5EEH         LINE#         4888
  C:E5F5H         LINE#         4889
  -------         ENDPROC       START_RIGHT_DOWN_CURVE_FILL
  -------         PROC          L?1121
BL51 BANKED LINKER/LOCATER V6.22                                                      08/26/2015  16:38:21  PAGE 101


  -------         ENDPROC       L?1121
  -------         PROC          START_SQUARE
  C:C6BAH         LINE#         4892
  C:C6BAH         LINE#         4893
  C:C6BAH         LINE#         4894
  C:C6BFH         LINE#         4895
  C:C6C6H         LINE#         4896
  -------         ENDPROC       START_SQUARE
  C:CC17H         SYMBOL        L?1043
  C:CC1EH         SYMBOL        L?1044
  C:CC1FH         SYMBOL        L?1045
  C:CC21H         SYMBOL        L?1046
  C:CC2EH         SYMBOL        L?1047
  C:CC30H         SYMBOL        L?1048
  C:CC32H         SYMBOL        L?1049
  -------         PROC          L?1042
  -------         ENDPROC       L?1042
  C:CC17H         SYMBOL        L?1043
  C:CC1EH         SYMBOL        L?1044
  C:CC1FH         SYMBOL        L?1045
  C:CC21H         SYMBOL        L?1046
  C:CC2EH         SYMBOL        L?1047
  C:CC30H         SYMBOL        L?1048
  C:CC32H         SYMBOL        L?1049
  -------         PROC          START_SQUARE_FILL
  C:CC37H         LINE#         4898
  C:CC37H         LINE#         4899
  C:CC37H         LINE#         4900
  C:CC3CH         LINE#         4901
  C:CC43H         LINE#         4902
  -------         ENDPROC       START_SQUARE_FILL
  -------         PROC          L?1110
  -------         ENDPROC       L?1110
  -------         PROC          START_CIRCLE_SQUARE
  C:C442H         LINE#         4904
  C:C442H         LINE#         4905
  C:C442H         LINE#         4906
  C:C447H         LINE#         4907
  C:C44EH         LINE#         4908
  -------         ENDPROC       START_CIRCLE_SQUARE
  -------         PROC          START_CIRCLE_SQUARE_FILL
  C:E5F8H         LINE#         4910
  C:E5F8H         LINE#         4911
  C:E5F8H         LINE#         4912
  C:E5FDH         LINE#         4913
  C:E604H         LINE#         4914
  -------         ENDPROC       START_CIRCLE_SQUARE_FILL
  C:C59DH         SYMBOL        L?1126
  C:C59FH         SYMBOL        L?1127
  -------         PROC          L?1125
  -------         ENDPROC       L?1125
  C:C59DH         SYMBOL        L?1126
  C:C59FH         SYMBOL        L?1127
  -------         PROC          _CIRCLE_CENTER_XY
  D:0002H         SYMBOL        WX
  D:0004H         SYMBOL        HY
  C:C5AAH         LINE#         4918
BL51 BANKED LINKER/LOCATER V6.22                                                      08/26/2015  16:38:21  PAGE 102


  C:C5AEH         LINE#         4919
  C:C5AEH         LINE#         4926
  C:C5B3H         LINE#         4927
  C:C5B8H         LINE#         4929
  C:C5BDH         LINE#         4930
  C:C5C4H         LINE#         4932
  C:C5C9H         LINE#         4933
  C:C5D0H         LINE#         4935
  C:C5D5H         LINE#         4936
  -------         ENDPROC       _CIRCLE_CENTER_XY
  -------         PROC          _ELLIPSE_CENTER_XY
  D:0002H         SYMBOL        WX
  D:0004H         SYMBOL        HY
  C:CA29H         LINE#         4939
  C:CA2DH         LINE#         4940
  C:CA2DH         LINE#         4947
  C:CA32H         LINE#         4948
  C:CA37H         LINE#         4950
  C:CA3CH         LINE#         4951
  C:CA43H         LINE#         4953
  C:CA48H         LINE#         4954
  C:CA4FH         LINE#         4956
  C:CA54H         LINE#         4957
  -------         ENDPROC       _ELLIPSE_CENTER_XY
  -------         PROC          _CIRCLE_RADIUS_R
  D:0004H         SYMBOL        WX
  C:CBE7H         LINE#         4960
  C:CBEBH         LINE#         4961
  C:CBEBH         LINE#         4968
  C:CBF0H         LINE#         4969
  C:CBF5H         LINE#         4971
  C:CBFAH         LINE#         4972
  C:CC01H         LINE#         4974
  C:CC06H         LINE#         4975
  C:CC0CH         LINE#         4977
  C:CC11H         LINE#         4978
  -------         ENDPROC       _CIRCLE_RADIUS_R
  -------         PROC          _ELLIPSE_RADIUS_RXRY
  D:0002H         SYMBOL        WX
  D:0004H         SYMBOL        HY
  C:CA5BH         LINE#         4982
  C:CA5FH         LINE#         4983
  C:CA5FH         LINE#         4990
  C:CA64H         LINE#         4991
  C:CA69H         LINE#         4993
  C:CA6EH         LINE#         4994
  C:CA75H         LINE#         4996
  C:CA7AH         LINE#         4997
  C:CA81H         LINE#         4999
  C:CA86H         LINE#         5000
  -------         ENDPROC       _ELLIPSE_RADIUS_RXRY
  -------         PROC          _CIRCLE_SQUARE_RADIUS_RXRY
  D:0002H         SYMBOL        WX
  D:0004H         SYMBOL        HY
  C:CA8DH         LINE#         5004
  C:CA91H         LINE#         5005
  C:CA91H         LINE#         5012
BL51 BANKED LINKER/LOCATER V6.22                                                      08/26/2015  16:38:21  PAGE 103


  C:CA96H         LINE#         5013
  C:CA9BH         LINE#         5015
  C:CAA0H         LINE#         5016
  C:CAA7H         LINE#         5018
  C:CAACH         LINE#         5019
  C:CAB3H         LINE#         5021
  C:CAB8H         LINE#         5022
  -------         ENDPROC       _CIRCLE_SQUARE_RADIUS_RXRY
  -------         PROC          _SET_PWM_PRESCALER_1_TO_256
  D:0004H         SYMBOL        WX
  C:D1A5H         LINE#         5026
  C:D1A9H         LINE#         5027
  C:D1A9H         LINE#         5033
  C:D1AEH         LINE#         5034
  C:D1B3H         LINE#         5035
  -------         ENDPROC       _SET_PWM_PRESCALER_1_TO_256
  -------         PROC          SELECT_PWM1_CLOCK_DIVIDED_BY_1
  -------         DO            
  D:0007H         SYMBOL        temp
  -------         ENDDO         
  C:D600H         LINE#         5038
  C:D600H         LINE#         5039
  C:D600H         LINE#         5046
  C:D605H         LINE#         5047
  C:D608H         LINE#         5048
  C:D60BH         LINE#         5049
  C:D60EH         LINE#         5050
  -------         ENDPROC       SELECT_PWM1_CLOCK_DIVIDED_BY_1
  -------         PROC          SELECT_PWM1_CLOCK_DIVIDED_BY_2
  -------         DO            
  D:0007H         SYMBOL        temp
  -------         ENDDO         
  C:D613H         LINE#         5052
  C:D613H         LINE#         5053
  C:D613H         LINE#         5060
  C:D618H         LINE#         5061
  C:D61BH         LINE#         5062
  C:D61EH         LINE#         5063
  C:D621H         LINE#         5064
  -------         ENDPROC       SELECT_PWM1_CLOCK_DIVIDED_BY_2
  -------         PROC          SELECT_PWM1_CLOCK_DIVIDED_BY_4
  -------         DO            
  D:0007H         SYMBOL        temp
  -------         ENDDO         
  C:D626H         LINE#         5066
  C:D626H         LINE#         5067
  C:D626H         LINE#         5074
  C:D62BH         LINE#         5075
  C:D62EH         LINE#         5076
  C:D631H         LINE#         5077
  C:D634H         LINE#         5078
  -------         ENDPROC       SELECT_PWM1_CLOCK_DIVIDED_BY_4
  -------         PROC          SELECT_PWM1_CLOCK_DIVIDED_BY_8
  -------         DO            
  D:0007H         SYMBOL        temp
  -------         ENDDO         
  C:D639H         LINE#         5080
BL51 BANKED LINKER/LOCATER V6.22                                                      08/26/2015  16:38:21  PAGE 104


  C:D639H         LINE#         5081
  C:D639H         LINE#         5088
  C:D63EH         LINE#         5089
  C:D641H         LINE#         5090
  C:D644H         LINE#         5091
  C:D647H         LINE#         5092
  -------         ENDPROC       SELECT_PWM1_CLOCK_DIVIDED_BY_8
  -------         PROC          SELECT_PWM0_CLOCK_DIVIDED_BY_1
  -------         DO            
  D:0007H         SYMBOL        temp
  -------         ENDDO         
  C:D64CH         LINE#         5094
  C:D64CH         LINE#         5095
  C:D64CH         LINE#         5102
  C:D651H         LINE#         5103
  C:D654H         LINE#         5104
  C:D657H         LINE#         5105
  C:D65AH         LINE#         5106
  -------         ENDPROC       SELECT_PWM0_CLOCK_DIVIDED_BY_1
  -------         PROC          SELECT_PWM0_CLOCK_DIVIDED_BY_2
  -------         DO            
  D:0007H         SYMBOL        temp
  -------         ENDDO         
  C:D65FH         LINE#         5108
  C:D65FH         LINE#         5109
  C:D65FH         LINE#         5116
  C:D664H         LINE#         5117
  C:D667H         LINE#         5118
  C:D66AH         LINE#         5119
  C:D66DH         LINE#         5120
  -------         ENDPROC       SELECT_PWM0_CLOCK_DIVIDED_BY_2
  -------         PROC          SELECT_PWM0_CLOCK_DIVIDED_BY_4
  -------         DO            
  D:0007H         SYMBOL        temp
  -------         ENDDO         
  C:D672H         LINE#         5122
  C:D672H         LINE#         5123
  C:D672H         LINE#         5130
  C:D677H         LINE#         5131
  C:D67AH         LINE#         5132
  C:D67DH         LINE#         5133
  C:D680H         LINE#         5134
  -------         ENDPROC       SELECT_PWM0_CLOCK_DIVIDED_BY_4
  -------         PROC          SELECT_PWM0_CLOCK_DIVIDED_BY_8
  -------         DO            
  D:0007H         SYMBOL        temp
  -------         ENDDO         
  C:D685H         LINE#         5136
  C:D685H         LINE#         5137
  C:D685H         LINE#         5144
  C:D68AH         LINE#         5145
  C:D68DH         LINE#         5146
  C:D690H         LINE#         5147
  C:D693H         LINE#         5148
  -------         ENDPROC       SELECT_PWM0_CLOCK_DIVIDED_BY_8
  -------         PROC          SELECT_PWM1_IS_ERRORFLAG
  -------         DO            
BL51 BANKED LINKER/LOCATER V6.22                                                      08/26/2015  16:38:21  PAGE 105


  D:0007H         SYMBOL        temp
  -------         ENDDO         
  C:E16BH         LINE#         5158
  C:E16BH         LINE#         5159
  C:E16BH         LINE#         5162
  C:E170H         LINE#         5163
  C:E173H         LINE#         5164
  C:E177H         LINE#         5165
  -------         ENDPROC       SELECT_PWM1_IS_ERRORFLAG
  -------         PROC          SELECT_PWM1
  -------         DO            
  D:0007H         SYMBOL        temp
  -------         ENDDO         
  C:D698H         LINE#         5167
  C:D698H         LINE#         5168
  C:D698H         LINE#         5171
  C:D69DH         LINE#         5172
  C:D6A0H         LINE#         5173
  C:D6A3H         LINE#         5174
  C:D6A6H         LINE#         5175
  -------         ENDPROC       SELECT_PWM1
  -------         PROC          SELECT_PWM1_IS_OSC_CLOCK
  -------         DO            
  D:0007H         SYMBOL        temp
  -------         ENDDO         
  C:D6ABH         LINE#         5177
  C:D6ABH         LINE#         5178
  C:D6ABH         LINE#         5181
  C:D6B0H         LINE#         5182
  C:D6B3H         LINE#         5183
  C:D6B6H         LINE#         5184
  C:D6B9H         LINE#         5185
  -------         ENDPROC       SELECT_PWM1_IS_OSC_CLOCK
  -------         PROC          SELECT_PWM0_IS_GPIO_C7
  -------         DO            
  D:0007H         SYMBOL        temp
  -------         ENDDO         
  C:E17CH         LINE#         5194
  C:E17CH         LINE#         5195
  C:E17CH         LINE#         5198
  C:E181H         LINE#         5199
  C:E184H         LINE#         5200
  C:E188H         LINE#         5201
  -------         ENDPROC       SELECT_PWM0_IS_GPIO_C7
  -------         PROC          SELECT_PWM0
  -------         DO            
  D:0007H         SYMBOL        temp
  -------         ENDDO         
  C:D6BEH         LINE#         5203
  C:D6BEH         LINE#         5204
  C:D6BEH         LINE#         5207
  C:D6C3H         LINE#         5208
  C:D6C6H         LINE#         5209
  C:D6C9H         LINE#         5210
  C:D6CCH         LINE#         5211
  -------         ENDPROC       SELECT_PWM0
  -------         PROC          SELECT_PWM0_IS_CORE_CLOCK
BL51 BANKED LINKER/LOCATER V6.22                                                      08/26/2015  16:38:21  PAGE 106


  -------         DO            
  D:0007H         SYMBOL        temp
  -------         ENDDO         
  C:D6D1H         LINE#         5213
  C:D6D1H         LINE#         5214
  C:D6D1H         LINE#         5217
  C:D6D6H         LINE#         5218
  C:D6D9H         LINE#         5219
  C:D6DCH         LINE#         5220
  C:D6DFH         LINE#         5221
  -------         ENDPROC       SELECT_PWM0_IS_CORE_CLOCK
  -------         PROC          ENABLE_PWM1_INVERTER
  -------         DO            
  D:0007H         SYMBOL        temp
  -------         ENDDO         
  C:E18DH         LINE#         5225
  C:E18DH         LINE#         5226
  C:E18DH         LINE#         5234
  C:E192H         LINE#         5235
  C:E195H         LINE#         5236
  C:E199H         LINE#         5237
  -------         ENDPROC       ENABLE_PWM1_INVERTER
  -------         PROC          DISABLE_PWM1_INVERTER
  -------         DO            
  D:0007H         SYMBOL        temp
  -------         ENDDO         
  C:E19EH         LINE#         5239
  C:E19EH         LINE#         5240
  C:E19EH         LINE#         5248
  C:E1A3H         LINE#         5249
  C:E1A6H         LINE#         5250
  C:E1AAH         LINE#         5251
  -------         ENDPROC       DISABLE_PWM1_INVERTER
  -------         PROC          AUTO_RELOAD_PWM1
  -------         DO            
  D:0007H         SYMBOL        temp
  -------         ENDDO         
  C:E1AFH         LINE#         5253
  C:E1AFH         LINE#         5254
  C:E1AFH         LINE#         5262
  C:E1B4H         LINE#         5263
  C:E1B7H         LINE#         5264
  C:E1BBH         LINE#         5265
  -------         ENDPROC       AUTO_RELOAD_PWM1
  -------         PROC          ONE_SHOT_PWM1
  -------         DO            
  D:0007H         SYMBOL        temp
  -------         ENDDO         
  C:E1C0H         LINE#         5267
  C:E1C0H         LINE#         5268
  C:E1C0H         LINE#         5276
  C:E1C5H         LINE#         5277
  C:E1C8H         LINE#         5278
  C:E1CCH         LINE#         5279
  -------         ENDPROC       ONE_SHOT_PWM1
  -------         PROC          START_PWM1
  -------         DO            
BL51 BANKED LINKER/LOCATER V6.22                                                      08/26/2015  16:38:21  PAGE 107


  D:0007H         SYMBOL        temp
  -------         ENDDO         
  C:E1D1H         LINE#         5281
  C:E1D1H         LINE#         5282
  C:E1D1H         LINE#         5290
  C:E1D6H         LINE#         5291
  C:E1D9H         LINE#         5292
  C:E1DDH         LINE#         5293
  -------         ENDPROC       START_PWM1
  -------         PROC          STOP_PWM1
  -------         DO            
  D:0007H         SYMBOL        temp
  -------         ENDDO         
  C:E1E2H         LINE#         5295
  C:E1E2H         LINE#         5296
  C:E1E2H         LINE#         5304
  C:E1E7H         LINE#         5305
  C:E1EAH         LINE#         5306
  C:E1EEH         LINE#         5307
  -------         ENDPROC       STOP_PWM1
  -------         PROC          ENABLE_PWM0_DEAD_ZONE
  -------         DO            
  D:0007H         SYMBOL        temp
  -------         ENDDO         
  C:E1F3H         LINE#         5310
  C:E1F3H         LINE#         5311
  C:E1F3H         LINE#         5317
  C:E1F8H         LINE#         5318
  C:E1FBH         LINE#         5319
  C:E1FFH         LINE#         5320
  -------         ENDPROC       ENABLE_PWM0_DEAD_ZONE
  -------         PROC          DISABLE_PWM0_DEAD_ZONE
  -------         DO            
  D:0007H         SYMBOL        temp
  -------         ENDDO         
  C:E204H         LINE#         5322
  C:E204H         LINE#         5323
  C:E204H         LINE#         5329
  C:E209H         LINE#         5330
  C:E20CH         LINE#         5331
  C:E210H         LINE#         5332
  -------         ENDPROC       DISABLE_PWM0_DEAD_ZONE
  -------         PROC          ENABLE_PWM0_INVERTER
  -------         DO            
  D:0007H         SYMBOL        temp
  -------         ENDDO         
  C:E215H         LINE#         5334
  C:E215H         LINE#         5335
  C:E215H         LINE#         5343
  C:E21AH         LINE#         5344
  C:E21DH         LINE#         5345
  C:E221H         LINE#         5346
  -------         ENDPROC       ENABLE_PWM0_INVERTER
  -------         PROC          DISABLE_PWM0_INVERTER
  -------         DO            
  D:0007H         SYMBOL        temp
  -------         ENDDO         
BL51 BANKED LINKER/LOCATER V6.22                                                      08/26/2015  16:38:21  PAGE 108


  C:E226H         LINE#         5348
  C:E226H         LINE#         5349
  C:E226H         LINE#         5357
  C:E22BH         LINE#         5358
  C:E22EH         LINE#         5359
  C:E232H         LINE#         5360
  -------         ENDPROC       DISABLE_PWM0_INVERTER
  -------         PROC          AUTO_RELOAD_PWM0
  -------         DO            
  D:0007H         SYMBOL        temp
  -------         ENDDO         
  C:E237H         LINE#         5362
  C:E237H         LINE#         5363
  C:E237H         LINE#         5371
  C:E23CH         LINE#         5372
  C:E23FH         LINE#         5373
  C:E243H         LINE#         5374
  -------         ENDPROC       AUTO_RELOAD_PWM0
  -------         PROC          ONE_SHOT_PWM0
  -------         DO            
  D:0007H         SYMBOL        temp
  -------         ENDDO         
  C:E248H         LINE#         5376
  C:E248H         LINE#         5377
  C:E248H         LINE#         5385
  C:E24DH         LINE#         5386
  C:E250H         LINE#         5387
  C:E254H         LINE#         5388
  -------         ENDPROC       ONE_SHOT_PWM0
  -------         PROC          START_PWM0
  -------         DO            
  D:0007H         SYMBOL        temp
  -------         ENDDO         
  C:E259H         LINE#         5390
  C:E259H         LINE#         5391
  C:E259H         LINE#         5399
  C:E25EH         LINE#         5400
  C:E261H         LINE#         5401
  C:E265H         LINE#         5402
  -------         ENDPROC       START_PWM0
  -------         PROC          STOP_PWM0
  -------         DO            
  D:0007H         SYMBOL        temp
  -------         ENDDO         
  C:E26AH         LINE#         5404
  C:E26AH         LINE#         5405
  C:E26AH         LINE#         5413
  C:E26FH         LINE#         5414
  C:E272H         LINE#         5415
  C:E276H         LINE#         5416
  -------         ENDPROC       STOP_PWM0
  -------         PROC          _SET_TIMER0_DEAD_ZONE_LENGTH
  D:0006H         SYMBOL        temp
  C:E685H         LINE#         5419
  C:E687H         LINE#         5420
  C:E687H         LINE#         5426
  C:E68CH         LINE#         5427
BL51 BANKED LINKER/LOCATER V6.22                                                      08/26/2015  16:38:21  PAGE 109


  -------         ENDPROC       _SET_TIMER0_DEAD_ZONE_LENGTH
  -------         PROC          _SET_TIMER0_COMPARE_BUFFER
  D:0004H         SYMBOL        WX
  C:D04BH         LINE#         5430
  C:D04FH         LINE#         5431
  C:D04FH         LINE#         5438
  C:D054H         LINE#         5439
  C:D059H         LINE#         5440
  C:D05EH         LINE#         5441
  -------         ENDPROC       _SET_TIMER0_COMPARE_BUFFER
  -------         PROC          _SET_TIMER0_COUNT_BUFFER
  D:0004H         SYMBOL        WX
  C:D065H         LINE#         5444
  C:D069H         LINE#         5445
  C:D069H         LINE#         5452
  C:D06EH         LINE#         5453
  C:D073H         LINE#         5454
  C:D078H         LINE#         5455
  -------         ENDPROC       _SET_TIMER0_COUNT_BUFFER
  -------         PROC          _SET_TIMER1_COMPARE_BUFFER
  D:0004H         SYMBOL        WX
  C:D07FH         LINE#         5458
  C:D083H         LINE#         5459
  C:D083H         LINE#         5466
  C:D088H         LINE#         5467
  C:D08DH         LINE#         5468
  C:D092H         LINE#         5469
  -------         ENDPROC       _SET_TIMER1_COMPARE_BUFFER
  -------         PROC          _SET_TIMER1_COUNT_BUFFER
  D:0004H         SYMBOL        WX
  C:D099H         LINE#         5472
  C:D09DH         LINE#         5473
  C:D09DH         LINE#         5480
  C:D0A2H         LINE#         5481
  C:D0A7H         LINE#         5482
  C:D0ACH         LINE#         5483
  -------         ENDPROC       _SET_TIMER1_COUNT_BUFFER
  -------         PROC          BTE_ENABLE
  -------         DO            
  D:0007H         SYMBOL        temp
  -------         ENDDO         
  C:E27BH         LINE#         5490
  C:E27BH         LINE#         5491
  C:E27BH         LINE#         5498
  C:E280H         LINE#         5499
  C:E283H         LINE#         5500
  C:E287H         LINE#         5501
  -------         ENDPROC       BTE_ENABLE
  -------         PROC          BTE_DISABLE
  -------         DO            
  D:0007H         SYMBOL        temp
  -------         ENDDO         
  C:E28CH         LINE#         5505
  C:E28CH         LINE#         5506
  C:E28CH         LINE#         5513
  C:E291H         LINE#         5514
  C:E294H         LINE#         5515
BL51 BANKED LINKER/LOCATER V6.22                                                      08/26/2015  16:38:21  PAGE 110


  C:E298H         LINE#         5516
  -------         ENDPROC       BTE_DISABLE
  -------         PROC          CHECK_BTE_BUSY
  -------         DO            
  D:0007H         SYMBOL        temp
  -------         ENDDO         
  C:E92EH         LINE#         5520
  C:E92EH         LINE#         5521
  C:E92EH         LINE#         5529
  C:E92EH         LINE#         5530
  C:E931H         LINE#         5531
  C:E935H         LINE#         5533
  -------         ENDPROC       CHECK_BTE_BUSY
  -------         PROC          PATTERN_FORMAT_8X8
  -------         DO            
  D:0007H         SYMBOL        temp
  -------         ENDDO         
  C:E29DH         LINE#         5535
  C:E29DH         LINE#         5536
  C:E29DH         LINE#         5543
  C:E2A2H         LINE#         5544
  C:E2A5H         LINE#         5545
  C:E2A9H         LINE#         5546
  -------         ENDPROC       PATTERN_FORMAT_8X8
  -------         PROC          PATTERN_FORMAT_16X16
  -------         DO            
  D:0007H         SYMBOL        temp
  -------         ENDDO         
  C:E2AEH         LINE#         5549
  C:E2AEH         LINE#         5550
  C:E2AEH         LINE#         5557
  C:E2B3H         LINE#         5558
  C:E2B6H         LINE#         5559
  C:E2BAH         LINE#         5560
  -------         ENDPROC       PATTERN_FORMAT_16X16
  C:CCA4H         SYMBOL        L?1105
  C:CCAEH         SYMBOL        L?1106
  C:CCB4H         SYMBOL        L?1107
  -------         PROC          L?1104
  -------         ENDPROC       L?1104
  C:CCA4H         SYMBOL        L?1105
  C:CCAEH         SYMBOL        L?1106
  C:CCB4H         SYMBOL        L?1107
  -------         PROC          _BTE_ROP_CODE
  D:0006H         SYMBOL        setx
  -------         DO            
  D:0007H         SYMBOL        temp
  -------         ENDDO         
  C:CCB9H         LINE#         5564
  C:CCBBH         LINE#         5565
  C:CCBBH         LINE#         5587
  C:CCC0H         LINE#         5588
  C:CCC3H         LINE#         5589
  C:CCC7H         LINE#         5590
  C:CCCDH         LINE#         5591
  -------         ENDPROC       _BTE_ROP_CODE
  -------         PROC          _BTE_OPERATION_CODE
BL51 BANKED LINKER/LOCATER V6.22                                                      08/26/2015  16:38:21  PAGE 111


  D:0006H         SYMBOL        setx
  -------         DO            
  D:0007H         SYMBOL        temp
  -------         ENDDO         
  C:D2E0H         LINE#         5595
  C:D2E2H         LINE#         5596
  C:D2E2H         LINE#         5618
  C:D2E7H         LINE#         5619
  C:D2EAH         LINE#         5620
  C:D2EDH         LINE#         5621
  C:D2EFH         LINE#         5622
  -------         ENDPROC       _BTE_OPERATION_CODE
  -------         PROC          BTE_S0_COLOR_8BPP
  -------         DO            
  D:0007H         SYMBOL        temp
  -------         ENDDO         
  C:D6E4H         LINE#         5626
  C:D6E4H         LINE#         5627
  C:D6E4H         LINE#         5635
  C:D6E9H         LINE#         5636
  C:D6ECH         LINE#         5637
  C:D6EFH         LINE#         5638
  C:D6F2H         LINE#         5639
  -------         ENDPROC       BTE_S0_COLOR_8BPP
  -------         PROC          BTE_S0_COLOR_16BPP
  -------         DO            
  D:0007H         SYMBOL        temp
  -------         ENDDO         
  C:D6F7H         LINE#         5642
  C:D6F7H         LINE#         5643
  C:D6F7H         LINE#         5651
  C:D6FCH         LINE#         5652
  C:D6FFH         LINE#         5653
  C:D702H         LINE#         5654
  C:D705H         LINE#         5655
  -------         ENDPROC       BTE_S0_COLOR_16BPP
  -------         PROC          BTE_S0_COLOR_24BPP
  -------         DO            
  D:0007H         SYMBOL        temp
  -------         ENDDO         
  C:E2BFH         LINE#         5659
  C:E2BFH         LINE#         5660
  C:E2BFH         LINE#         5668
  C:E2C4H         LINE#         5669
  C:E2C7H         LINE#         5670
  C:E2CBH         LINE#         5672
  -------         ENDPROC       BTE_S0_COLOR_24BPP
  -------         PROC          BTE_S1_COLOR_8BPP
  -------         DO            
  D:0007H         SYMBOL        temp
  -------         ENDDO         
  C:D1BAH         LINE#         5675
  C:D1BAH         LINE#         5676
  C:D1BAH         LINE#         5687
  C:D1BFH         LINE#         5688
  C:D1C2H         LINE#         5689
  C:D1C5H         LINE#         5690
BL51 BANKED LINKER/LOCATER V6.22                                                      08/26/2015  16:38:21  PAGE 112


  C:D1C7H         LINE#         5691
  C:D1CAH         LINE#         5692
  -------         ENDPROC       BTE_S1_COLOR_8BPP
  -------         PROC          BTE_S1_COLOR_16BPP
  -------         DO            
  D:0007H         SYMBOL        temp
  -------         ENDDO         
  C:D1CFH         LINE#         5695
  C:D1CFH         LINE#         5696
  C:D1CFH         LINE#         5707
  C:D1D4H         LINE#         5708
  C:D1D7H         LINE#         5709
  C:D1DAH         LINE#         5710
  C:D1DCH         LINE#         5711
  C:D1DFH         LINE#         5712
  -------         ENDPROC       BTE_S1_COLOR_16BPP
  -------         PROC          BTE_S1_COLOR_24BPP
  -------         DO            
  D:0007H         SYMBOL        temp
  -------         ENDDO         
  C:D1E4H         LINE#         5716
  C:D1E4H         LINE#         5717
  C:D1E4H         LINE#         5728
  C:D1E9H         LINE#         5729
  C:D1ECH         LINE#         5730
  C:D1EFH         LINE#         5731
  C:D1F1H         LINE#         5732
  C:D1F4H         LINE#         5733
  -------         ENDPROC       BTE_S1_COLOR_24BPP
  -------         PROC          BTE_S1_COLOR_CONSTANT
  -------         DO            
  D:0007H         SYMBOL        temp
  -------         ENDDO         
  C:D1F9H         LINE#         5737
  C:D1F9H         LINE#         5738
  C:D1F9H         LINE#         5749
  C:D1FEH         LINE#         5750
  C:D201H         LINE#         5751
  C:D204H         LINE#         5752
  C:D206H         LINE#         5753
  C:D209H         LINE#         5754
  -------         ENDPROC       BTE_S1_COLOR_CONSTANT
  -------         PROC          BTE_S1_COLOR_8BIT_ALPHA
  -------         DO            
  D:0007H         SYMBOL        temp
  -------         ENDDO         
  C:D20EH         LINE#         5760
  C:D20EH         LINE#         5761
  C:D20EH         LINE#         5772
  C:D213H         LINE#         5773
  C:D216H         LINE#         5774
  C:D219H         LINE#         5775
  C:D21BH         LINE#         5776
  C:D21EH         LINE#         5777
  -------         ENDPROC       BTE_S1_COLOR_8BIT_ALPHA
  -------         PROC          BTE_S1_COLOR_16BIT_ALPHA
  -------         DO            
BL51 BANKED LINKER/LOCATER V6.22                                                      08/26/2015  16:38:21  PAGE 113


  D:0007H         SYMBOL        temp
  -------         ENDDO         
  C:D223H         LINE#         5781
  C:D223H         LINE#         5782
  C:D223H         LINE#         5793
  C:D228H         LINE#         5794
  C:D22BH         LINE#         5795
  C:D22EH         LINE#         5796
  C:D230H         LINE#         5797
  C:D233H         LINE#         5798
  -------         ENDPROC       BTE_S1_COLOR_16BIT_ALPHA
  -------         PROC          BTE_DESTINATION_COLOR_8BPP
  -------         DO            
  D:0007H         SYMBOL        temp
  -------         ENDDO         
  C:D70AH         LINE#         5802
  C:D70AH         LINE#         5803
  C:D70AH         LINE#         5811
  C:D70FH         LINE#         5812
  C:D712H         LINE#         5813
  C:D715H         LINE#         5814
  C:D718H         LINE#         5815
  -------         ENDPROC       BTE_DESTINATION_COLOR_8BPP
  -------         PROC          L?1160
  -------         ENDPROC       L?1160
  -------         PROC          BTE_DESTINATION_COLOR_16BPP
  -------         DO            
  D:0007H         SYMBOL        temp
  -------         ENDDO         
  C:D0BAH         LINE#         5818
  C:D0BAH         LINE#         5819
  C:D0BAH         LINE#         5827
  C:D0BFH         LINE#         5828
  C:D0C2H         LINE#         5829
  C:D0C5H         LINE#         5830
  C:D0C8H         LINE#         5831
  -------         ENDPROC       BTE_DESTINATION_COLOR_16BPP
  -------         PROC          BTE_DESTINATION_COLOR_24BPP
  -------         DO            
  D:0007H         SYMBOL        temp
  -------         ENDDO         
  C:E2D0H         LINE#         5835
  C:E2D0H         LINE#         5836
  C:E2D0H         LINE#         5844
  C:E2D5H         LINE#         5845
  C:E2D8H         LINE#         5846
  C:E2DCH         LINE#         5848
  -------         ENDPROC       BTE_DESTINATION_COLOR_24BPP
  -------         PROC          _BTE_S0_MEMORY_START_ADDRESS
  X:0225H         SYMBOL        Addr
  C:BF83H         LINE#         5853
  C:BF89H         LINE#         5854
  C:BF89H         LINE#         5862
  C:BF96H         LINE#         5863
  C:BFB0H         LINE#         5864
  C:BFCAH         LINE#         5865
  -------         ENDPROC       _BTE_S0_MEMORY_START_ADDRESS
BL51 BANKED LINKER/LOCATER V6.22                                                      08/26/2015  16:38:21  PAGE 114


  -------         PROC          _BTE_S0_IMAGE_WIDTH
  D:0002H         SYMBOL        WX
  C:D8E1H         LINE#         5870
  C:D8E5H         LINE#         5871
  C:D8E5H         LINE#         5878
  C:D8ECH         LINE#         5879
  -------         ENDPROC       _BTE_S0_IMAGE_WIDTH
  C:C51AH         SYMBOL        L?1091
  C:C51EH         SYMBOL        L?1092
  C:C522H         SYMBOL        L?1093
  -------         PROC          L?1090
  -------         ENDPROC       L?1090
  C:C51AH         SYMBOL        L?1091
  C:C51EH         SYMBOL        L?1092
  C:C522H         SYMBOL        L?1093
  -------         PROC          _BTE_S0_WINDOW_START_XY
  X:0223H         SYMBOL        WX
  D:0002H         SYMBOL        HY
  C:C531H         LINE#         5884
  C:C53DH         LINE#         5885
  C:C53DH         LINE#         5892
  C:C543H         LINE#         5893
  C:C54DH         LINE#         5895
  C:C554H         LINE#         5896
  -------         ENDPROC       _BTE_S0_WINDOW_START_XY
  -------         PROC          _BTE_S1_MEMORY_START_ADDRESS
  X:021BH         SYMBOL        Addr
  C:BFE4H         LINE#         5903
  C:BFEAH         LINE#         5904
  C:BFEAH         LINE#         5912
  C:BFF7H         LINE#         5913
  C:C011H         LINE#         5914
  C:C02BH         LINE#         5915
  -------         ENDPROC       _BTE_S1_MEMORY_START_ADDRESS
  -------         PROC          _S1_CONSTANT_COLOR_256
  D:0005H         SYMBOL        temp
  C:CD00H         LINE#         5920
  C:CD02H         LINE#         5921
  C:CD02H         LINE#         5922
  C:CD07H         LINE#         5923
  C:CD0EH         LINE#         5925
  C:CD13H         LINE#         5926
  C:CD1DH         LINE#         5928
  C:CD22H         LINE#         5929
  -------         ENDPROC       _S1_CONSTANT_COLOR_256
  -------         PROC          _S1_CONSTANT_COLOR_65K
  D:0004H         SYMBOL        temp
  C:C6C9H         LINE#         5933
  C:C6CDH         LINE#         5934
  C:C6CDH         LINE#         5935
  C:C6D2H         LINE#         5936
  C:C6D9H         LINE#         5938
  C:C6DEH         LINE#         5939
  C:C6EEH         LINE#         5941
  C:C6F3H         LINE#         5942
  -------         ENDPROC       _S1_CONSTANT_COLOR_65K
  -------         PROC          _S1_CONSTANT_COLOR_16M
BL51 BANKED LINKER/LOCATER V6.22                                                      08/26/2015  16:38:21  PAGE 115


  X:0280H         SYMBOL        temp
  C:CD87H         LINE#         5946
  C:CD8DH         LINE#         5947
  C:CD8DH         LINE#         5948
  C:CD92H         LINE#         5949
  C:CD97H         LINE#         5951
  C:CD9CH         LINE#         5952
  C:CDA1H         LINE#         5954
  C:CDA6H         LINE#         5955
  -------         ENDPROC       _S1_CONSTANT_COLOR_16M
  C:CF4DH         SYMBOL        L?1135
  C:CF51H         SYMBOL        L?1136
  -------         PROC          L?1134
  -------         ENDPROC       L?1134
  C:CF4DH         SYMBOL        L?1135
  C:CF51H         SYMBOL        L?1136
  -------         PROC          _BTE_S1_IMAGE_WIDTH
  D:0002H         SYMBOL        WX
  C:CF5AH         LINE#         5962
  C:CF5EH         LINE#         5963
  C:CF5EH         LINE#         5970
  C:CF65H         LINE#         5971
  -------         ENDPROC       _BTE_S1_IMAGE_WIDTH
  C:CC46H         SYMBOL        L?1153
  -------         PROC          L?1152
  -------         ENDPROC       L?1152
  C:CC46H         SYMBOL        L?1153
  -------         PROC          _BTE_S1_WINDOW_START_XY
  X:0223H         SYMBOL        WX
  D:0002H         SYMBOL        HY
  C:CC4BH         LINE#         5976
  C:CC57H         LINE#         5977
  C:CC57H         LINE#         5984
  C:CC5DH         LINE#         5985
  C:CC67H         LINE#         5987
  C:CC6EH         LINE#         5988
  -------         ENDPROC       _BTE_S1_WINDOW_START_XY
  -------         PROC          _BTE_DESTINATION_MEMORY_START_ADDRESS
  X:0223H         SYMBOL        Addr
  C:C045H         LINE#         5995
  C:C04BH         LINE#         5996
  C:C04BH         LINE#         6004
  C:C058H         LINE#         6005
  C:C072H         LINE#         6006
  C:C08CH         LINE#         6007
  -------         ENDPROC       _BTE_DESTINATION_MEMORY_START_ADDRESS
  C:C775H         SYMBOL        L?1069
  C:C78FH         SYMBOL        L?1070
  C:C793H         SYMBOL        L?1071
  C:C795H         SYMBOL        L?1072
  -------         PROC          L?1068
  -------         ENDPROC       L?1068
  C:C775H         SYMBOL        L?1069
  C:C78FH         SYMBOL        L?1070
  C:C793H         SYMBOL        L?1071
  C:C795H         SYMBOL        L?1072
  -------         PROC          _BTE_DESTINATION_IMAGE_WIDTH
BL51 BANKED LINKER/LOCATER V6.22                                                      08/26/2015  16:38:21  PAGE 116


  D:0002H         SYMBOL        WX
  C:C79CH         LINE#         6012
  C:C7A0H         LINE#         6013
  C:C7A0H         LINE#         6020
  C:C7A7H         LINE#         6021
  -------         ENDPROC       _BTE_DESTINATION_IMAGE_WIDTH
  -------         PROC          L?1155
  -------         ENDPROC       L?1155
  -------         PROC          _BTE_DESTINATION_WINDOW_START_XY
  X:0225H         SYMBOL        WX
  D:0002H         SYMBOL        HY
  C:CCD6H         LINE#         6026
  C:CCE2H         LINE#         6027
  C:CCE2H         LINE#         6034
  C:CCE8H         LINE#         6035
  C:CCF2H         LINE#         6037
  C:CCF9H         LINE#         6038
  -------         ENDPROC       _BTE_DESTINATION_WINDOW_START_XY
  -------         PROC          L?1151
  -------         ENDPROC       L?1151
  -------         PROC          _BTE_WINDOW_SIZE
  X:0223H         SYMBOL        WX
  D:0002H         SYMBOL        WY
  C:C861H         LINE#         6044
  C:C86DH         LINE#         6046
  C:C86DH         LINE#         6054
  C:C873H         LINE#         6055
  C:C87DH         LINE#         6057
  C:C884H         LINE#         6058
  -------         ENDPROC       _BTE_WINDOW_SIZE
  -------         PROC          _BTE_ALPHA_BLENDING_EFFECT
  D:0006H         SYMBOL        temp
  C:E693H         LINE#         6062
  C:E695H         LINE#         6063
  C:E695H         LINE#         6078
  C:E69AH         LINE#         6079
  -------         ENDPROC       _BTE_ALPHA_BLENDING_EFFECT
  C:CE38H         SYMBOL        L?1054
  C:CE3AH         SYMBOL        L?1055
  C:CE45H         SYMBOL        L?1056
  -------         PROC          L?1053
  -------         ENDPROC       L?1053
  C:CE38H         SYMBOL        L?1054
  C:CE3AH         SYMBOL        L?1055
  C:CE45H         SYMBOL        L?1056
  -------         PROC          START_SFI_DMA
  -------         DO            
  D:0007H         SYMBOL        temp
  -------         ENDDO         
  C:CE4BH         LINE#         6084
  C:CE4BH         LINE#         6085
  C:CE4BH         LINE#         6087
  C:CE50H         LINE#         6088
  C:CE53H         LINE#         6089
  C:CE57H         LINE#         6090
  -------         ENDPROC       START_SFI_DMA
  -------         PROC          CHECK_BUSY_SFI_DMA
BL51 BANKED LINKER/LOCATER V6.22                                                      08/26/2015  16:38:21  PAGE 117


  C:E781H         LINE#         6093
  C:E781H         LINE#         6094
  C:E781H         LINE#         6095
  C:E786H         LINE#         6097
  C:E786H         LINE#         6098
  C:E78DH         LINE#         6099
  -------         ENDPROC       CHECK_BUSY_SFI_DMA
  -------         PROC          SELECT_SFI_0
  -------         DO            
  D:0007H         SYMBOL        temp
  -------         ENDDO         
  C:E2E1H         LINE#         6103
  C:E2E1H         LINE#         6104
  C:E2E1H         LINE#         6111
  C:E2E6H         LINE#         6112
  C:E2E9H         LINE#         6113
  C:E2EDH         LINE#         6114
  -------         ENDPROC       SELECT_SFI_0
  -------         PROC          SELECT_SFI_1
  -------         DO            
  D:0007H         SYMBOL        temp
  -------         ENDDO         
  C:E2F2H         LINE#         6116
  C:E2F2H         LINE#         6117
  C:E2F2H         LINE#         6124
  C:E2F7H         LINE#         6125
  C:E2FAH         LINE#         6126
  C:E2FEH         LINE#         6127
  -------         ENDPROC       SELECT_SFI_1
  -------         PROC          SELECT_SFI_FONT_MODE
  -------         DO            
  D:0007H         SYMBOL        temp
  -------         ENDDO         
  C:E303H         LINE#         6129
  C:E303H         LINE#         6130
  C:E303H         LINE#         6137
  C:E308H         LINE#         6138
  C:E30BH         LINE#         6139
  C:E30FH         LINE#         6140
  -------         ENDPROC       SELECT_SFI_FONT_MODE
  -------         PROC          SELECT_SFI_DMA_MODE
  -------         DO            
  D:0007H         SYMBOL        temp
  -------         ENDDO         
  C:E314H         LINE#         6142
  C:E314H         LINE#         6143
  C:E314H         LINE#         6150
  C:E319H         LINE#         6151
  C:E31CH         LINE#         6152
  C:E320H         LINE#         6153
  -------         ENDPROC       SELECT_SFI_DMA_MODE
  -------         PROC          SELECT_SFI_24BIT_ADDRESS
  -------         DO            
  D:0007H         SYMBOL        temp
  -------         ENDDO         
  C:E325H         LINE#         6155
  C:E325H         LINE#         6156
BL51 BANKED LINKER/LOCATER V6.22                                                      08/26/2015  16:38:21  PAGE 118


  C:E325H         LINE#         6163
  C:E32AH         LINE#         6164
  C:E32DH         LINE#         6165
  C:E331H         LINE#         6166
  -------         ENDPROC       SELECT_SFI_24BIT_ADDRESS
  -------         PROC          SELECT_SFI_32BIT_ADDRESS
  -------         DO            
  D:0007H         SYMBOL        temp
  -------         ENDDO         
  C:E336H         LINE#         6168
  C:E336H         LINE#         6169
  C:E336H         LINE#         6176
  C:E33BH         LINE#         6177
  C:E33EH         LINE#         6178
  C:E342H         LINE#         6179
  -------         ENDPROC       SELECT_SFI_32BIT_ADDRESS
  -------         PROC          SELECT_SFI_WAVEFORM_MODE_0
  -------         DO            
  D:0007H         SYMBOL        temp
  -------         ENDDO         
  C:E347H         LINE#         6181
  C:E347H         LINE#         6182
  C:E347H         LINE#         6189
  C:E34CH         LINE#         6190
  C:E34FH         LINE#         6191
  C:E353H         LINE#         6192
  -------         ENDPROC       SELECT_SFI_WAVEFORM_MODE_0
  -------         PROC          SELECT_SFI_WAVEFORM_MODE_3
  -------         DO            
  D:0007H         SYMBOL        temp
  -------         ENDDO         
  C:E358H         LINE#         6194
  C:E358H         LINE#         6195
  C:E358H         LINE#         6202
  C:E35DH         LINE#         6203
  C:E360H         LINE#         6204
  C:E364H         LINE#         6205
  -------         ENDPROC       SELECT_SFI_WAVEFORM_MODE_3
  -------         PROC          SELECT_SFI_0_DUMMYREAD
  -------         DO            
  D:0007H         SYMBOL        temp
  -------         ENDDO         
  C:E369H         LINE#         6207
  C:E369H         LINE#         6208
  C:E369H         LINE#         6217
  C:E36EH         LINE#         6218
  C:E371H         LINE#         6219
  C:E375H         LINE#         6220
  -------         ENDPROC       SELECT_SFI_0_DUMMYREAD
  -------         PROC          SELECT_SFI_8_DUMMYREAD
  -------         DO            
  D:0007H         SYMBOL        temp
  -------         ENDDO         
  C:D71DH         LINE#         6222
  C:D71DH         LINE#         6223
  C:D71DH         LINE#         6225
  C:D722H         LINE#         6226
BL51 BANKED LINKER/LOCATER V6.22                                                      08/26/2015  16:38:21  PAGE 119


  C:D725H         LINE#         6227
  C:D728H         LINE#         6228
  C:D72BH         LINE#         6229
  -------         ENDPROC       SELECT_SFI_8_DUMMYREAD
  -------         PROC          SELECT_SFI_16_DUMMYREAD
  -------         DO            
  D:0007H         SYMBOL        temp
  -------         ENDDO         
  C:D730H         LINE#         6231
  C:D730H         LINE#         6232
  C:D730H         LINE#         6235
  C:D735H         LINE#         6236
  C:D738H         LINE#         6237
  C:D73BH         LINE#         6238
  C:D73EH         LINE#         6239
  -------         ENDPROC       SELECT_SFI_16_DUMMYREAD
  -------         PROC          SELECT_SFI_24_DUMMYREAD
  -------         DO            
  D:0007H         SYMBOL        temp
  -------         ENDDO         
  C:E37AH         LINE#         6241
  C:E37AH         LINE#         6242
  C:E37AH         LINE#         6244
  C:E37FH         LINE#         6245
  C:E382H         LINE#         6246
  C:E386H         LINE#         6247
  -------         ENDPROC       SELECT_SFI_24_DUMMYREAD
  -------         PROC          SELECT_SFI_SINGLE_MODE
  -------         DO            
  D:0007H         SYMBOL        temp
  -------         ENDDO         
  C:E38BH         LINE#         6249
  C:E38BH         LINE#         6250
  C:E38BH         LINE#         6258
  C:E390H         LINE#         6259
  C:E393H         LINE#         6260
  C:E397H         LINE#         6261
  -------         ENDPROC       SELECT_SFI_SINGLE_MODE
  -------         PROC          SELECT_SFI_DUAL_MODE0
  -------         DO            
  D:0007H         SYMBOL        temp
  -------         ENDDO         
  C:D743H         LINE#         6263
  C:D743H         LINE#         6264
  C:D743H         LINE#         6266
  C:D748H         LINE#         6267
  C:D74BH         LINE#         6268
  C:D74EH         LINE#         6269
  C:D751H         LINE#         6270
  -------         ENDPROC       SELECT_SFI_DUAL_MODE0
  -------         PROC          SELECT_SFI_DUAL_MODE1
  -------         DO            
  D:0007H         SYMBOL        temp
  -------         ENDDO         
  C:E39CH         LINE#         6272
  C:E39CH         LINE#         6273
  C:E39CH         LINE#         6275
BL51 BANKED LINKER/LOCATER V6.22                                                      08/26/2015  16:38:21  PAGE 120


  C:E3A1H         LINE#         6276
  C:E3A4H         LINE#         6277
  C:E3A8H         LINE#         6278
  -------         ENDPROC       SELECT_SFI_DUAL_MODE1
  -------         PROC          _SPI_MASTER_FIFO_DATA_PUT
  D:0006H         SYMBOL        Data
  -------         DO            
  D:0007H         SYMBOL        temp
  -------         ENDDO         
  C:D133H         LINE#         6282
  C:D135H         LINE#         6283
  C:D135H         LINE#         6285
  C:D13AH         LINE#         6286
  C:D141H         LINE#         6287
  C:D147H         LINE#         6288
  C:D14AH         LINE#         6289
  C:D14AH         LINE#         6290
  -------         ENDPROC       _SPI_MASTER_FIFO_DATA_PUT
  -------         PROC          SPI_MASTER_FIFO_DATA_GET
  -------         DO            
  D:0007H         SYMBOL        temp
  -------         ENDDO         
  C:E3ADH         LINE#         6292
  C:E3ADH         LINE#         6293
  C:E3ADH         LINE#         6296
  C:E3B5H         LINE#         6297
  C:E3BAH         LINE#         6298
  C:E3BDH         LINE#         6300
  C:E3BDH         LINE#         6301
  -------         ENDPROC       SPI_MASTER_FIFO_DATA_GET
  -------         PROC          MASK_SPI_MASTER_INTERRUPT_FLAG
  -------         DO            
  D:0007H         SYMBOL        temp
  -------         ENDDO         
  C:E3BEH         LINE#         6304
  C:E3BEH         LINE#         6305
  C:E3BEH         LINE#         6307
  C:E3C3H         LINE#         6308
  C:E3C6H         LINE#         6309
  C:E3CAH         LINE#         6310
  -------         ENDPROC       MASK_SPI_MASTER_INTERRUPT_FLAG
  -------         PROC          SELECT_NSS_DRIVE_ON_XNSFCS0
  -------         DO            
  D:0007H         SYMBOL        temp
  -------         ENDDO         
  C:E3CFH         LINE#         6314
  C:E3CFH         LINE#         6315
  C:E3CFH         LINE#         6317
  C:E3D4H         LINE#         6318
  C:E3D7H         LINE#         6319
  C:E3DBH         LINE#         6320
  -------         ENDPROC       SELECT_NSS_DRIVE_ON_XNSFCS0
  -------         PROC          SELECT_NSS_DRIVE_ON_XNSFCS1
  -------         DO            
  D:0007H         SYMBOL        temp
  -------         ENDDO         
  C:E3E0H         LINE#         6324
BL51 BANKED LINKER/LOCATER V6.22                                                      08/26/2015  16:38:21  PAGE 121


  C:E3E0H         LINE#         6325
  C:E3E0H         LINE#         6327
  C:E3E5H         LINE#         6328
  C:E3E8H         LINE#         6329
  C:E3ECH         LINE#         6330
  -------         ENDPROC       SELECT_NSS_DRIVE_ON_XNSFCS1
  -------         PROC          NSS_INACTIVE
  -------         DO            
  D:0007H         SYMBOL        temp
  -------         ENDDO         
  C:E3F1H         LINE#         6335
  C:E3F1H         LINE#         6336
  C:E3F1H         LINE#         6338
  C:E3F6H         LINE#         6339
  C:E3F9H         LINE#         6340
  C:E3FDH         LINE#         6341
  -------         ENDPROC       NSS_INACTIVE
  -------         PROC          NSS_ACTIVE
  -------         DO            
  D:0007H         SYMBOL        temp
  -------         ENDDO         
  C:E402H         LINE#         6344
  C:E402H         LINE#         6345
  C:E402H         LINE#         6347
  C:E407H         LINE#         6348
  C:E40AH         LINE#         6349
  C:E40EH         LINE#         6350
  -------         ENDPROC       NSS_ACTIVE
  -------         PROC          OVFIRQEN_ENABLE
  -------         DO            
  D:0007H         SYMBOL        temp
  -------         ENDDO         
  C:E413H         LINE#         6354
  C:E413H         LINE#         6355
  C:E413H         LINE#         6357
  C:E418H         LINE#         6358
  C:E41BH         LINE#         6359
  C:E41FH         LINE#         6360
  -------         ENDPROC       OVFIRQEN_ENABLE
  -------         PROC          EMTIRQEN_ENABLE
  -------         DO            
  D:0007H         SYMBOL        temp
  -------         ENDDO         
  C:E424H         LINE#         6364
  C:E424H         LINE#         6365
  C:E424H         LINE#         6367
  C:E429H         LINE#         6368
  C:E42CH         LINE#         6369
  C:E430H         LINE#         6370
  -------         ENDPROC       EMTIRQEN_ENABLE
  -------         PROC          RESET_CPOL
  -------         DO            
  D:0007H         SYMBOL        temp
  -------         ENDDO         
  C:E435H         LINE#         6386
  C:E435H         LINE#         6387
  C:E435H         LINE#         6389
BL51 BANKED LINKER/LOCATER V6.22                                                      08/26/2015  16:38:21  PAGE 122


  C:E43AH         LINE#         6390
  C:E43DH         LINE#         6391
  C:E441H         LINE#         6392
  -------         ENDPROC       RESET_CPOL
  -------         PROC          SET_CPOL
  -------         DO            
  D:0007H         SYMBOL        temp
  -------         ENDDO         
  C:E446H         LINE#         6395
  C:E446H         LINE#         6396
  C:E446H         LINE#         6398
  C:E44BH         LINE#         6399
  C:E44EH         LINE#         6400
  C:E452H         LINE#         6401
  -------         ENDPROC       SET_CPOL
  -------         PROC          RESET_CPHA
  -------         DO            
  D:0007H         SYMBOL        temp
  -------         ENDDO         
  C:E457H         LINE#         6405
  C:E457H         LINE#         6406
  C:E457H         LINE#         6408
  C:E45CH         LINE#         6409
  C:E45FH         LINE#         6410
  C:E463H         LINE#         6411
  -------         ENDPROC       RESET_CPHA
  -------         PROC          SET_CPHA
  -------         DO            
  D:0007H         SYMBOL        temp
  -------         ENDDO         
  C:E468H         LINE#         6414
  C:E468H         LINE#         6415
  C:E468H         LINE#         6417
  C:E46DH         LINE#         6418
  C:E470H         LINE#         6419
  C:E474H         LINE#         6420
  -------         ENDPROC       SET_CPHA
  -------         PROC          TX_FIFO_EMPTY_FLAG
  C:D8F3H         LINE#         6425
  C:D8F3H         LINE#         6426
  C:D8F3H         LINE#         6427
  C:D8F8H         LINE#         6428
  C:D8FFH         LINE#         6429
  C:D902H         LINE#         6431
  C:D904H         LINE#         6432
  -------         ENDPROC       TX_FIFO_EMPTY_FLAG
  -------         PROC          TX_FIFO_FULL_FLAG
  C:D905H         LINE#         6434
  C:D905H         LINE#         6435
  C:D905H         LINE#         6436
  C:D90AH         LINE#         6437
  C:D911H         LINE#         6438
  C:D914H         LINE#         6440
  C:D916H         LINE#         6441
  -------         ENDPROC       TX_FIFO_FULL_FLAG
  -------         PROC          RX_FIFO_EMPTY_FLAG
  C:D917H         LINE#         6443
BL51 BANKED LINKER/LOCATER V6.22                                                      08/26/2015  16:38:21  PAGE 123


  C:D917H         LINE#         6444
  C:D917H         LINE#         6445
  C:D91CH         LINE#         6446
  C:D923H         LINE#         6447
  C:D926H         LINE#         6449
  C:D928H         LINE#         6450
  -------         ENDPROC       RX_FIFO_EMPTY_FLAG
  -------         PROC          RX_FIFO_FULL_FLAG
  C:D929H         LINE#         6452
  C:D929H         LINE#         6453
  C:D929H         LINE#         6454
  C:D92EH         LINE#         6455
  C:D935H         LINE#         6456
  C:D938H         LINE#         6458
  C:D93AH         LINE#         6459
  -------         ENDPROC       RX_FIFO_FULL_FLAG
  -------         PROC          OVFI_FLAG
  C:D93BH         LINE#         6461
  C:D93BH         LINE#         6462
  C:D93BH         LINE#         6463
  C:D940H         LINE#         6464
  C:D947H         LINE#         6465
  C:D94AH         LINE#         6467
  C:D94CH         LINE#         6468
  -------         ENDPROC       OVFI_FLAG
  -------         PROC          CLEAR_OVFI_FLAG
  -------         DO            
  D:0007H         SYMBOL        temp
  -------         ENDDO         
  C:E479H         LINE#         6470
  C:E479H         LINE#         6471
  C:E479H         LINE#         6473
  C:E47EH         LINE#         6474
  C:E481H         LINE#         6475
  C:E485H         LINE#         6476
  -------         ENDPROC       CLEAR_OVFI_FLAG
  -------         PROC          EMTI_FLAG
  C:D94DH         LINE#         6479
  C:D94DH         LINE#         6480
  C:D94DH         LINE#         6481
  C:D952H         LINE#         6482
  C:D959H         LINE#         6483
  C:D95CH         LINE#         6485
  C:D95EH         LINE#         6486
  -------         ENDPROC       EMTI_FLAG
  -------         PROC          CLEAR_EMTI_FLAG
  -------         DO            
  D:0007H         SYMBOL        temp
  -------         ENDDO         
  C:E48AH         LINE#         6488
  C:E48AH         LINE#         6489
  C:E48AH         LINE#         6491
  C:E48FH         LINE#         6492
  C:E492H         LINE#         6493
  C:E496H         LINE#         6494
  -------         ENDPROC       CLEAR_EMTI_FLAG
  -------         PROC          _SPI_CLOCK_PERIOD
BL51 BANKED LINKER/LOCATER V6.22                                                      08/26/2015  16:38:21  PAGE 124


  D:0006H         SYMBOL        temp
  C:E6A1H         LINE#         6499
  C:E6A3H         LINE#         6500
  C:E6A3H         LINE#         6501
  C:E6A8H         LINE#         6502
  -------         ENDPROC       _SPI_CLOCK_PERIOD
  C:BB71H         SYMBOL        L?1129
  C:BB75H         SYMBOL        L?1130
  -------         PROC          L?1128
  -------         ENDPROC       L?1128
  C:BB71H         SYMBOL        L?1129
  C:BB75H         SYMBOL        L?1130
  -------         PROC          _SFI_DMA_SOURCE_START_ADDRESS
  X:021BH         SYMBOL        Addr
  C:BB79H         LINE#         6506
  C:BB7FH         LINE#         6507
  C:BB7FH         LINE#         6512
  C:BB84H         LINE#         6513
  C:BB91H         LINE#         6514
  C:BB96H         LINE#         6515
  C:BBACH         LINE#         6516
  C:BBB1H         LINE#         6517
  C:BBC7H         LINE#         6518
  C:BBCCH         LINE#         6519
  -------         ENDPROC       _SFI_DMA_SOURCE_START_ADDRESS
  -------         PROC          _SFI_DMA_DESTINATION_START_ADDRESS
  X:0284H         SYMBOL        Addr
  C:BD1FH         LINE#         6522
  C:BD25H         LINE#         6523
  C:BD25H         LINE#         6529
  C:BD2AH         LINE#         6530
  C:BD37H         LINE#         6531
  C:BD3CH         LINE#         6532
  C:BD52H         LINE#         6533
  C:BD57H         LINE#         6534
  C:BD6DH         LINE#         6535
  C:BD72H         LINE#         6536
  -------         ENDPROC       _SFI_DMA_DESTINATION_START_ADDRESS
  C:C565H         SYMBOL        L?1139
  C:C566H         SYMBOL        L?1140
  -------         PROC          L?1138
  -------         ENDPROC       L?1138
  C:C565H         SYMBOL        L?1139
  C:C566H         SYMBOL        L?1140
  -------         PROC          _SFI_DMA_DESTINATION_UPPER_LEFT_CORNER
  D:0002H         SYMBOL        WX
  D:0004H         SYMBOL        HY
  C:C56AH         LINE#         6539
  C:C56EH         LINE#         6540
  C:C56EH         LINE#         6567
  C:C573H         LINE#         6568
  C:C578H         LINE#         6569
  C:C57DH         LINE#         6570
  C:C584H         LINE#         6572
  C:C589H         LINE#         6573
  C:C590H         LINE#         6574
  C:C595H         LINE#         6575
BL51 BANKED LINKER/LOCATER V6.22                                                      08/26/2015  16:38:21  PAGE 125


  -------         ENDPROC       _SFI_DMA_DESTINATION_UPPER_LEFT_CORNER
  -------         PROC          _SFI_DMA_TRANSFER_NUMBER
  X:0288H         SYMBOL        Addr
  C:BD88H         LINE#         6581
  C:BD8EH         LINE#         6582
  C:BD8EH         LINE#         6592
  C:BD93H         LINE#         6593
  C:BDA0H         LINE#         6594
  C:BDA5H         LINE#         6595
  C:BDBBH         LINE#         6596
  C:BDC0H         LINE#         6597
  C:BDD6H         LINE#         6598
  C:BDDBH         LINE#         6599
  -------         ENDPROC       _SFI_DMA_TRANSFER_NUMBER
  -------         PROC          _SFI_DMA_TRANSFER_WIDTH_HEIGHT
  D:0002H         SYMBOL        WX
  D:0004H         SYMBOL        HY
  C:CABFH         LINE#         6601
  C:CAC3H         LINE#         6602
  C:CAC3H         LINE#         6611
  C:CAC8H         LINE#         6612
  C:CACDH         LINE#         6613
  C:CAD2H         LINE#         6614
  C:CAD9H         LINE#         6616
  C:CADEH         LINE#         6617
  C:CAE5H         LINE#         6618
  C:CAEAH         LINE#         6619
  -------         ENDPROC       _SFI_DMA_TRANSFER_WIDTH_HEIGHT
  C:C8C8H         SYMBOL        L?1064
  C:C8CCH         SYMBOL        L?1065
  C:C8D3H         SYMBOL        L?1066
  C:C8D6H         SYMBOL        L?1067
  -------         PROC          L?1063
  -------         ENDPROC       L?1063
  C:C8C8H         SYMBOL        L?1064
  C:C8CCH         SYMBOL        L?1065
  C:C8D3H         SYMBOL        L?1066
  C:C8D6H         SYMBOL        L?1067
  -------         PROC          _SFI_DMA_SOURCE_WIDTH
  D:0004H         SYMBOL        WX
  C:C8DDH         LINE#         6622
  C:C8E1H         LINE#         6623
  C:C8E1H         LINE#         6628
  C:C8E6H         LINE#         6629
  C:C8EBH         LINE#         6630
  C:C8F0H         LINE#         6631
  -------         ENDPROC       _SFI_DMA_SOURCE_WIDTH
  -------         PROC          FONT_SELECT_USERDEFINE_MODE
  -------         DO            
  D:0007H         SYMBOL        temp
  -------         ENDDO         
  C:D756H         LINE#         6636
  C:D756H         LINE#         6637
  C:D756H         LINE#         6645
  C:D75BH         LINE#         6646
  C:D75EH         LINE#         6647
  C:D761H         LINE#         6648
BL51 BANKED LINKER/LOCATER V6.22                                                      08/26/2015  16:38:21  PAGE 126


  C:D764H         LINE#         6649
  -------         ENDPROC       FONT_SELECT_USERDEFINE_MODE
  C:CB03H         SYMBOL        L?1051
  C:CB04H         SYMBOL        L?1052
  -------         PROC          L?1050
  -------         ENDPROC       L?1050
  C:CB03H         SYMBOL        L?1051
  C:CB04H         SYMBOL        L?1052
  -------         PROC          CGROM_SELECT_INTERNAL_CGROM
  -------         DO            
  D:0007H         SYMBOL        temp
  -------         ENDDO         
  C:CB10H         LINE#         6651
  C:CB10H         LINE#         6652
  C:CB10H         LINE#         6660
  C:CB15H         LINE#         6661
  C:CB18H         LINE#         6662
  C:CB1BH         LINE#         6663
  C:CB1EH         LINE#         6664
  -------         ENDPROC       CGROM_SELECT_INTERNAL_CGROM
  -------         PROC          CGROM_SELECT_GENITOP_FONTROM
  -------         DO            
  D:0007H         SYMBOL        temp
  -------         ENDDO         
  C:D769H         LINE#         6666
  C:D769H         LINE#         6667
  C:D769H         LINE#         6675
  C:D76EH         LINE#         6676
  C:D771H         LINE#         6677
  C:D774H         LINE#         6678
  C:D777H         LINE#         6679
  -------         ENDPROC       CGROM_SELECT_GENITOP_FONTROM
  -------         PROC          FONT_SELECT_8X16_16X16
  -------         DO            
  D:0007H         SYMBOL        temp
  -------         ENDDO         
  C:D77CH         LINE#         6681
  C:D77CH         LINE#         6682
  C:D77CH         LINE#         6693
  C:D781H         LINE#         6694
  C:D784H         LINE#         6695
  C:D787H         LINE#         6696
  C:D78AH         LINE#         6697
  -------         ENDPROC       FONT_SELECT_8X16_16X16
  C:CF35H         SYMBOL        L?1142
  -------         PROC          L?1141
  -------         ENDPROC       L?1141
  C:CF35H         SYMBOL        L?1142
  -------         PROC          FONT_SELECT_12X24_24X24
  -------         DO            
  D:0007H         SYMBOL        temp
  -------         ENDDO         
  C:CF3AH         LINE#         6699
  C:CF3AH         LINE#         6700
  C:CF3AH         LINE#         6711
  C:CF3FH         LINE#         6712
  C:CF42H         LINE#         6713
BL51 BANKED LINKER/LOCATER V6.22                                                      08/26/2015  16:38:21  PAGE 127


  C:CF45H         LINE#         6714
  C:CF48H         LINE#         6715
  -------         ENDPROC       FONT_SELECT_12X24_24X24
  -------         PROC          FONT_SELECT_16X32_32X32
  -------         DO            
  D:0007H         SYMBOL        temp
  -------         ENDDO         
  C:D78FH         LINE#         6717
  C:D78FH         LINE#         6718
  C:D78FH         LINE#         6729
  C:D794H         LINE#         6730
  C:D797H         LINE#         6731
  C:D79AH         LINE#         6732
  C:D79DH         LINE#         6733
  -------         ENDPROC       FONT_SELECT_16X32_32X32
  -------         PROC          INTERNAL_CGROM_SELECT_ISOIEC8859_1
  -------         DO            
  D:0007H         SYMBOL        temp
  -------         ENDDO         
  C:D7A2H         LINE#         6735
  C:D7A2H         LINE#         6736
  C:D7A2H         LINE#         6748
  C:D7A7H         LINE#         6749
  C:D7AAH         LINE#         6750
  C:D7ADH         LINE#         6751
  C:D7B0H         LINE#         6752
  -------         ENDPROC       INTERNAL_CGROM_SELECT_ISOIEC8859_1
  -------         PROC          INTERNAL_CGROM_SELECT_ISOIEC8859_2
  -------         DO            
  D:0007H         SYMBOL        temp
  -------         ENDDO         
  C:D7B5H         LINE#         6754
  C:D7B5H         LINE#         6755
  C:D7B5H         LINE#         6767
  C:D7BAH         LINE#         6768
  C:D7BDH         LINE#         6769
  C:D7C0H         LINE#         6770
  C:D7C3H         LINE#         6771
  -------         ENDPROC       INTERNAL_CGROM_SELECT_ISOIEC8859_2
  -------         PROC          INTERNAL_CGROM_SELECT_ISOIEC8859_3
  -------         DO            
  D:0007H         SYMBOL        temp
  -------         ENDDO         
  C:D7C8H         LINE#         6773
  C:D7C8H         LINE#         6774
  C:D7C8H         LINE#         6786
  C:D7CDH         LINE#         6787
  C:D7D0H         LINE#         6788
  C:D7D3H         LINE#         6789
  C:D7D6H         LINE#         6790
  -------         ENDPROC       INTERNAL_CGROM_SELECT_ISOIEC8859_3
  -------         PROC          INTERNAL_CGROM_SELECT_ISOIEC8859_4
  -------         DO            
  D:0007H         SYMBOL        temp
  -------         ENDDO         
  C:D7DBH         LINE#         6792
  C:D7DBH         LINE#         6793
BL51 BANKED LINKER/LOCATER V6.22                                                      08/26/2015  16:38:21  PAGE 128


  C:D7DBH         LINE#         6805
  C:D7E0H         LINE#         6806
  C:D7E3H         LINE#         6807
  C:D7E6H         LINE#         6808
  C:D7E9H         LINE#         6809
  -------         ENDPROC       INTERNAL_CGROM_SELECT_ISOIEC8859_4
  -------         PROC          ENABLE_FONT_ALIGNMENT
  -------         DO            
  D:0007H         SYMBOL        temp
  -------         ENDDO         
  C:E49BH         LINE#         6812
  C:E49BH         LINE#         6813
  C:E49BH         LINE#         6820
  C:E4A0H         LINE#         6821
  C:E4A3H         LINE#         6822
  C:E4A7H         LINE#         6823
  -------         ENDPROC       ENABLE_FONT_ALIGNMENT
  -------         PROC          DISABLE_FONT_ALIGNMENT
  -------         DO            
  D:0007H         SYMBOL        temp
  -------         ENDDO         
  C:E4ACH         LINE#         6825
  C:E4ACH         LINE#         6826
  C:E4ACH         LINE#         6833
  C:E4B1H         LINE#         6834
  C:E4B4H         LINE#         6835
  C:E4B8H         LINE#         6836
  -------         ENDPROC       DISABLE_FONT_ALIGNMENT
  -------         PROC          FONT_BACKGROUND_SELECT_TRANSPARENCY
  -------         DO            
  D:0007H         SYMBOL        temp
  -------         ENDDO         
  C:E4BDH         LINE#         6838
  C:E4BDH         LINE#         6839
  C:E4BDH         LINE#         6846
  C:E4C2H         LINE#         6847
  C:E4C5H         LINE#         6848
  C:E4C9H         LINE#         6849
  -------         ENDPROC       FONT_BACKGROUND_SELECT_TRANSPARENCY
  -------         PROC          FONT_BACKGROUND_SELECT_COLOR
  -------         DO            
  D:0007H         SYMBOL        temp
  -------         ENDDO         
  C:E4CEH         LINE#         6851
  C:E4CEH         LINE#         6852
  C:E4CEH         LINE#         6859
  C:E4D3H         LINE#         6860
  C:E4D6H         LINE#         6861
  C:E4DAH         LINE#         6862
  -------         ENDPROC       FONT_BACKGROUND_SELECT_COLOR
  -------         PROC          FONT_0_DEGREE
  -------         DO            
  D:0007H         SYMBOL        temp
  -------         ENDDO         
  C:E4DFH         LINE#         6864
  C:E4DFH         LINE#         6865
  C:E4DFH         LINE#         6877
BL51 BANKED LINKER/LOCATER V6.22                                                      08/26/2015  16:38:21  PAGE 129


  C:E4E4H         LINE#         6878
  C:E4E7H         LINE#         6879
  C:E4EBH         LINE#         6880
  -------         ENDPROC       FONT_0_DEGREE
  -------         PROC          FONT_90_DEGREE
  -------         DO            
  D:0007H         SYMBOL        temp
  -------         ENDDO         
  C:E4F0H         LINE#         6882
  C:E4F0H         LINE#         6883
  C:E4F0H         LINE#         6895
  C:E4F5H         LINE#         6896
  C:E4F8H         LINE#         6897
  C:E4FCH         LINE#         6898
  -------         ENDPROC       FONT_90_DEGREE
  -------         PROC          FONT_WIDTH_X1
  -------         DO            
  D:0007H         SYMBOL        temp
  -------         ENDDO         
  C:D7EEH         LINE#         6900
  C:D7EEH         LINE#         6901
  C:D7EEH         LINE#         6910
  C:D7F3H         LINE#         6911
  C:D7F6H         LINE#         6912
  C:D7F9H         LINE#         6913
  C:D7FCH         LINE#         6914
  -------         ENDPROC       FONT_WIDTH_X1
  -------         PROC          FONT_WIDTH_X2
  -------         DO            
  D:0007H         SYMBOL        temp
  -------         ENDDO         
  C:D801H         LINE#         6916
  C:D801H         LINE#         6917
  C:D801H         LINE#         6926
  C:D806H         LINE#         6927
  C:D809H         LINE#         6928
  C:D80CH         LINE#         6929
  C:D80FH         LINE#         6930
  -------         ENDPROC       FONT_WIDTH_X2
  -------         PROC          FONT_WIDTH_X3
  -------         DO            
  D:0007H         SYMBOL        temp
  -------         ENDDO         
  C:D814H         LINE#         6932
  C:D814H         LINE#         6933
  C:D814H         LINE#         6942
  C:D819H         LINE#         6943
  C:D81CH         LINE#         6944
  C:D81FH         LINE#         6945
  C:D822H         LINE#         6946
  -------         ENDPROC       FONT_WIDTH_X3
  -------         PROC          FONT_WIDTH_X4
  -------         DO            
  D:0007H         SYMBOL        temp
  -------         ENDDO         
  C:D827H         LINE#         6948
  C:D827H         LINE#         6949
BL51 BANKED LINKER/LOCATER V6.22                                                      08/26/2015  16:38:21  PAGE 130


  C:D827H         LINE#         6958
  C:D82CH         LINE#         6959
  C:D82FH         LINE#         6960
  C:D832H         LINE#         6961
  C:D835H         LINE#         6962
  -------         ENDPROC       FONT_WIDTH_X4
  -------         PROC          FONT_HEIGHT_X1
  -------         DO            
  D:0007H         SYMBOL        temp
  -------         ENDDO         
  C:D83AH         LINE#         6964
  C:D83AH         LINE#         6965
  C:D83AH         LINE#         6974
  C:D83FH         LINE#         6975
  C:D842H         LINE#         6976
  C:D845H         LINE#         6977
  C:D848H         LINE#         6978
  -------         ENDPROC       FONT_HEIGHT_X1
  -------         PROC          FONT_HEIGHT_X2
  -------         DO            
  D:0007H         SYMBOL        temp
  -------         ENDDO         
  C:D84DH         LINE#         6980
  C:D84DH         LINE#         6981
  C:D84DH         LINE#         6990
  C:D852H         LINE#         6991
  C:D855H         LINE#         6992
  C:D858H         LINE#         6993
  C:D85BH         LINE#         6994
  -------         ENDPROC       FONT_HEIGHT_X2
  -------         PROC          FONT_HEIGHT_X3
  -------         DO            
  D:0007H         SYMBOL        temp
  -------         ENDDO         
  C:D860H         LINE#         6996
  C:D860H         LINE#         6997
  C:D860H         LINE#         7006
  C:D865H         LINE#         7007
  C:D868H         LINE#         7008
  C:D86BH         LINE#         7009
  C:D86EH         LINE#         7010
  -------         ENDPROC       FONT_HEIGHT_X3
  -------         PROC          FONT_HEIGHT_X4
  -------         DO            
  D:0007H         SYMBOL        temp
  -------         ENDDO         
  C:D873H         LINE#         7012
  C:D873H         LINE#         7013
  C:D873H         LINE#         7022
  C:D878H         LINE#         7023
  C:D87BH         LINE#         7024
  C:D87EH         LINE#         7025
  C:D881H         LINE#         7026
  -------         ENDPROC       FONT_HEIGHT_X4
  -------         PROC          GTFONT_SELECT_GT21L16TW_GT21H16T1W
  -------         DO            
  D:0007H         SYMBOL        temp
BL51 BANKED LINKER/LOCATER V6.22                                                      08/26/2015  16:38:21  PAGE 131


  -------         ENDDO         
  C:D238H         LINE#         7030
  C:D238H         LINE#         7031
  C:D238H         LINE#         7044
  C:D23DH         LINE#         7045
  C:D240H         LINE#         7046
  C:D243H         LINE#         7047
  C:D245H         LINE#         7048
  C:D248H         LINE#         7049
  -------         ENDPROC       GTFONT_SELECT_GT21L16TW_GT21H16T1W
  -------         PROC          GTFONT_SELECT_GT23L16U2W
  -------         DO            
  D:0007H         SYMBOL        temp
  -------         ENDDO         
  C:D24DH         LINE#         7051
  C:D24DH         LINE#         7052
  C:D24DH         LINE#         7065
  C:D252H         LINE#         7066
  C:D255H         LINE#         7067
  C:D258H         LINE#         7068
  C:D25AH         LINE#         7069
  C:D25DH         LINE#         7070
  -------         ENDPROC       GTFONT_SELECT_GT23L16U2W
  -------         PROC          GTFONT_SELECT_GT23L24T3Y_GT23H24T3Y
  -------         DO            
  D:0007H         SYMBOL        temp
  -------         ENDDO         
  C:D262H         LINE#         7072
  C:D262H         LINE#         7073
  C:D262H         LINE#         7086
  C:D267H         LINE#         7087
  C:D26AH         LINE#         7088
  C:D26DH         LINE#         7089
  C:D26FH         LINE#         7090
  C:D272H         LINE#         7091
  -------         ENDPROC       GTFONT_SELECT_GT23L24T3Y_GT23H24T3Y
  -------         PROC          GTFONT_SELECT_GT23L24M1Z
  -------         DO            
  D:0007H         SYMBOL        temp
  -------         ENDDO         
  C:D277H         LINE#         7093
  C:D277H         LINE#         7094
  C:D277H         LINE#         7107
  C:D27CH         LINE#         7108
  C:D27FH         LINE#         7109
  C:D282H         LINE#         7110
  C:D284H         LINE#         7111
  C:D287H         LINE#         7112
  -------         ENDPROC       GTFONT_SELECT_GT23L24M1Z
  -------         PROC          GTFONT_SELECT_GT23L32S4W_GT23H32S4W
  -------         DO            
  D:0007H         SYMBOL        temp
  -------         ENDDO         
  C:D28CH         LINE#         7114
  C:D28CH         LINE#         7115
  C:D28CH         LINE#         7128
  C:D291H         LINE#         7129
BL51 BANKED LINKER/LOCATER V6.22                                                      08/26/2015  16:38:21  PAGE 132


  C:D294H         LINE#         7130
  C:D297H         LINE#         7131
  C:D299H         LINE#         7132
  C:D29CH         LINE#         7133
  -------         ENDPROC       GTFONT_SELECT_GT23L32S4W_GT23H32S4W
  -------         PROC          GTFONT_SELECT_GT20L24F6Y
  -------         DO            
  D:0007H         SYMBOL        temp
  -------         ENDDO         
  C:D2A1H         LINE#         7135
  C:D2A1H         LINE#         7136
  C:D2A1H         LINE#         7149
  C:D2A6H         LINE#         7150
  C:D2A9H         LINE#         7151
  C:D2ACH         LINE#         7152
  C:D2AEH         LINE#         7153
  C:D2B1H         LINE#         7154
  -------         ENDPROC       GTFONT_SELECT_GT20L24F6Y
  -------         PROC          GTFONT_SELECT_GT21L24S1W
  -------         DO            
  D:0007H         SYMBOL        temp
  -------         ENDDO         
  C:D2B6H         LINE#         7156
  C:D2B6H         LINE#         7157
  C:D2B6H         LINE#         7170
  C:D2BBH         LINE#         7171
  C:D2BEH         LINE#         7172
  C:D2C1H         LINE#         7173
  C:D2C3H         LINE#         7174
  C:D2C6H         LINE#         7175
  -------         ENDPROC       GTFONT_SELECT_GT21L24S1W
  -------         PROC          GTFONT_SELECT_GT22L16A1Y
  -------         DO            
  D:0007H         SYMBOL        temp
  -------         ENDDO         
  C:D2CBH         LINE#         7177
  C:D2CBH         LINE#         7178
  C:D2CBH         LINE#         7191
  C:D2D0H         LINE#         7192
  C:D2D3H         LINE#         7193
  C:D2D6H         LINE#         7194
  C:D2D8H         LINE#         7195
  C:D2DBH         LINE#         7196
  -------         ENDPROC       GTFONT_SELECT_GT22L16A1Y
  -------         PROC          _SET_GTFONT_DECODER
  D:0006H         SYMBOL        temp
  C:E6AFH         LINE#         7200
  C:E6B1H         LINE#         7201
  C:E6B1H         LINE#         7239
  C:E6B6H         LINE#         7240
  -------         ENDPROC       _SET_GTFONT_DECODER
  -------         PROC          _FONT_LINE_DISTANCE
  D:0006H         SYMBOL        temp
  C:E6BDH         LINE#         7243
  C:E6BFH         LINE#         7244
  C:E6BFH         LINE#         7250
  C:E6C4H         LINE#         7251
BL51 BANKED LINKER/LOCATER V6.22                                                      08/26/2015  16:38:21  PAGE 133


  -------         ENDPROC       _FONT_LINE_DISTANCE
  -------         PROC          _SET_FONT_TO_FONT_WIDTH
  D:0006H         SYMBOL        temp
  C:E6CBH         LINE#         7254
  C:E6CDH         LINE#         7255
  C:E6CDH         LINE#         7259
  C:E6D2H         LINE#         7260
  -------         ENDPROC       _SET_FONT_TO_FONT_WIDTH
  -------         PROC          _FOREGROUND_RGB
  D:0006H         SYMBOL        RED
  D:0005H         SYMBOL        GREEN
  D:0003H         SYMBOL        BLUE
  C:CEC9H         LINE#         7263
  C:CECBH         LINE#         7264
  C:CECBH         LINE#         7270
  C:CED0H         LINE#         7271
  C:CED7H         LINE#         7273
  C:CEDCH         LINE#         7274
  C:CEE1H         LINE#         7276
  C:CEE6H         LINE#         7277
  -------         ENDPROC       _FOREGROUND_RGB
  -------         PROC          _FOREGROUND_COLOR_256
  D:0005H         SYMBOL        temp
  C:CD2DH         LINE#         7281
  C:CD2FH         LINE#         7282
  C:CD2FH         LINE#         7283
  C:CD34H         LINE#         7284
  C:CD3BH         LINE#         7286
  C:CD40H         LINE#         7287
  C:CD4AH         LINE#         7289
  C:CD4FH         LINE#         7290
  -------         ENDPROC       _FOREGROUND_COLOR_256
  C:C5DCH         SYMBOL        L?1115
  -------         PROC          L?1114
  -------         ENDPROC       L?1114
  C:C5DCH         SYMBOL        L?1115
  -------         PROC          _FOREGROUND_COLOR_65K
  D:0004H         SYMBOL        temp
  C:C5E0H         LINE#         7294
  C:C5E4H         LINE#         7295
  C:C5E4H         LINE#         7296
  C:C5E9H         LINE#         7297
  C:C5F0H         LINE#         7299
  C:C5F5H         LINE#         7300
  C:C605H         LINE#         7302
  C:C60AH         LINE#         7303
  -------         ENDPROC       _FOREGROUND_COLOR_65K
  -------         PROC          _FOREGROUND_COLOR_16M
  X:028CH         SYMBOL        temp
  C:C292H         LINE#         7307
  C:C298H         LINE#         7308
  C:C298H         LINE#         7309
  C:C29DH         LINE#         7310
  C:C2B3H         LINE#         7312
  C:C2B8H         LINE#         7313
  C:C2CEH         LINE#         7315
  C:C2D3H         LINE#         7316
BL51 BANKED LINKER/LOCATER V6.22                                                      08/26/2015  16:38:21  PAGE 134


  -------         ENDPROC       _FOREGROUND_COLOR_16M
  -------         PROC          _BACKGROUND_RGB
  D:0006H         SYMBOL        RED
  D:0005H         SYMBOL        GREEN
  D:0003H         SYMBOL        BLUE
  C:CEEBH         LINE#         7327
  C:CEEDH         LINE#         7328
  C:CEEDH         LINE#         7330
  C:CEF2H         LINE#         7331
  C:CEF9H         LINE#         7333
  C:CEFEH         LINE#         7334
  C:CF03H         LINE#         7336
  C:CF08H         LINE#         7337
  -------         ENDPROC       _BACKGROUND_RGB
  -------         PROC          _BACKGROUND_COLOR_256
  D:0005H         SYMBOL        temp
  C:CD5AH         LINE#         7341
  C:CD5CH         LINE#         7342
  C:CD5CH         LINE#         7343
  C:CD61H         LINE#         7344
  C:CD68H         LINE#         7346
  C:CD6DH         LINE#         7347
  C:CD77H         LINE#         7349
  C:CD7CH         LINE#         7350
  -------         ENDPROC       _BACKGROUND_COLOR_256
  C:C451H         SYMBOL        L?1081
  -------         PROC          L?1080
  -------         ENDPROC       L?1080
  C:C451H         SYMBOL        L?1081
  -------         PROC          _BACKGROUND_COLOR_65K
  D:0004H         SYMBOL        temp
  C:C45CH         LINE#         7354
  C:C460H         LINE#         7355
  C:C460H         LINE#         7356
  C:C465H         LINE#         7357
  C:C46CH         LINE#         7359
  C:C471H         LINE#         7360
  C:C481H         LINE#         7362
  C:C486H         LINE#         7363
  -------         ENDPROC       _BACKGROUND_COLOR_65K
  -------         PROC          _BACKGROUND_COLOR_16M
  X:0290H         SYMBOL        temp
  C:C2E0H         LINE#         7367
  C:C2E6H         LINE#         7368
  C:C2E6H         LINE#         7369
  C:C2EBH         LINE#         7370
  C:C301H         LINE#         7372
  C:C306H         LINE#         7373
  C:C31CH         LINE#         7375
  C:C321H         LINE#         7376
  -------         ENDPROC       _BACKGROUND_COLOR_16M
  -------         PROC          _CGRAM_START_ADDRESS
  X:0294H         SYMBOL        Addr
  C:BDF1H         LINE#         7380
  C:BDF7H         LINE#         7381
  C:BDF7H         LINE#         7385
  C:BDFCH         LINE#         7386
BL51 BANKED LINKER/LOCATER V6.22                                                      08/26/2015  16:38:21  PAGE 135


  C:BE09H         LINE#         7387
  C:BE0EH         LINE#         7388
  C:BE24H         LINE#         7389
  C:BE29H         LINE#         7390
  C:BE3FH         LINE#         7391
  C:BE44H         LINE#         7392
  -------         ENDPROC       _CGRAM_START_ADDRESS
  -------         PROC          POWER_NORMAL_MODE
  C:E85CH         LINE#         7406
  C:E85CH         LINE#         7407
  C:E85CH         LINE#         7408
  C:E861H         LINE#         7409
  -------         ENDPROC       POWER_NORMAL_MODE
  -------         PROC          POWER_SAVING_STANDBY_MODE
  C:D179H         LINE#         7411
  C:D179H         LINE#         7412
  C:D179H         LINE#         7413
  C:D17EH         LINE#         7414
  C:D185H         LINE#         7415
  C:D18AH         LINE#         7416
  -------         ENDPROC       POWER_SAVING_STANDBY_MODE
  -------         PROC          POWER_SAVING_SUSPEND_MODE
  C:E838H         LINE#         7418
  C:E838H         LINE#         7419
  C:E838H         LINE#         7420
  C:E83DH         LINE#         7423
  -------         ENDPROC       POWER_SAVING_SUSPEND_MODE
  -------         PROC          POWER_SAVING_SLEEP_MODE
  C:E844H         LINE#         7425
  C:E844H         LINE#         7426
  C:E844H         LINE#         7427
  C:E849H         LINE#         7430
  -------         ENDPROC       POWER_SAVING_SLEEP_MODE
  -------         PROC          _RA8876_I2CM_CLOCK_PRESCALE
  D:0004H         SYMBOL        WX
  C:D0CDH         LINE#         7435
  C:D0D1H         LINE#         7436
  C:D0D1H         LINE#         7441
  C:D0D6H         LINE#         7442
  C:D0DBH         LINE#         7443
  C:D0E0H         LINE#         7444
  -------         ENDPROC       _RA8876_I2CM_CLOCK_PRESCALE
  -------         PROC          _RA8876_I2CM_TRANSMIT_DATA
  D:0006H         SYMBOL        temp
  C:E6D9H         LINE#         7447
  C:E6DBH         LINE#         7448
  C:E6DBH         LINE#         7452
  C:E6E0H         LINE#         7453
  -------         ENDPROC       _RA8876_I2CM_TRANSMIT_DATA
  -------         PROC          RA8876_I2CM_RECEIVER_DATA
  -------         DO            
  D:0007H         SYMBOL        temp
  -------         ENDDO         
  C:E884H         LINE#         7456
  C:E884H         LINE#         7457
  C:E884H         LINE#         7462
  C:E889H         LINE#         7463
BL51 BANKED LINKER/LOCATER V6.22                                                      08/26/2015  16:38:21  PAGE 136


  C:E88CH         LINE#         7464
  C:E88CH         LINE#         7465
  -------         ENDPROC       RA8876_I2CM_RECEIVER_DATA
  -------         PROC          RA8876_I2CM_STOP
  C:E949H         LINE#         7492
  C:E949H         LINE#         7493
  C:E949H         LINE#         7494
  -------         ENDPROC       RA8876_I2CM_STOP
  -------         PROC          RA8876_I2CM_READ_WITH_ACK
  C:E94EH         LINE#         7503
  C:E94EH         LINE#         7504
  C:E94EH         LINE#         7506
  -------         ENDPROC       RA8876_I2CM_READ_WITH_ACK
  -------         PROC          RA8876_I2CM_READ_WITH_NACK
  C:E953H         LINE#         7515
  C:E953H         LINE#         7516
  C:E953H         LINE#         7518
  -------         ENDPROC       RA8876_I2CM_READ_WITH_NACK
  -------         PROC          RA8876_I2CM_WRITE_WITH_START
  C:E958H         LINE#         7527
  C:E958H         LINE#         7528
  C:E958H         LINE#         7529
  -------         ENDPROC       RA8876_I2CM_WRITE_WITH_START
  -------         PROC          RA8876_I2CM_WRITE
  C:E95DH         LINE#         7540
  C:E95DH         LINE#         7541
  C:E95DH         LINE#         7542
  -------         ENDPROC       RA8876_I2CM_WRITE
  -------         PROC          RA8876_I2CM_CHECK_SLAVE_ACK
  -------         DO            
  D:0007H         SYMBOL        temp
  -------         ENDDO         
  C:D95FH         LINE#         7558
  C:D95FH         LINE#         7559
  C:D95FH         LINE#         7566
  C:D964H         LINE#         7567
  C:D967H         LINE#         7568
  C:D96BH         LINE#         7569
  C:D96EH         LINE#         7571
  C:D970H         LINE#         7572
  -------         ENDPROC       RA8876_I2CM_CHECK_SLAVE_ACK
  -------         PROC          RA8876_I2CM_BUS_BUSY
  -------         DO            
  D:0007H         SYMBOL        temp
  -------         ENDDO         
  C:D971H         LINE#         7579
  C:D971H         LINE#         7580
  C:D971H         LINE#         7588
  C:D976H         LINE#         7589
  C:D979H         LINE#         7590
  C:D97DH         LINE#         7591
  C:D980H         LINE#         7593
  C:D982H         LINE#         7594
  -------         ENDPROC       RA8876_I2CM_BUS_BUSY
  -------         PROC          RA8876_I2CM_TRANSMIT_PROGRESS
  -------         DO            
  D:0007H         SYMBOL        temp
BL51 BANKED LINKER/LOCATER V6.22                                                      08/26/2015  16:38:21  PAGE 137


  -------         ENDDO         
  C:D983H         LINE#         7600
  C:D983H         LINE#         7601
  C:D983H         LINE#         7607
  C:D988H         LINE#         7608
  C:D98BH         LINE#         7609
  C:D98FH         LINE#         7610
  C:D992H         LINE#         7612
  C:D994H         LINE#         7613
  -------         ENDPROC       RA8876_I2CM_TRANSMIT_PROGRESS
  -------         PROC          RA8876_I2CM_ARBITRATION
  -------         DO            
  D:0007H         SYMBOL        temp
  -------         ENDDO         
  C:E78EH         LINE#         7619
  C:E78EH         LINE#         7620
  C:E78EH         LINE#         7627
  C:E793H         LINE#         7628
  C:E796H         LINE#         7629
  C:E79AH         LINE#         7630
  C:E79AH         LINE#         7631
  -------         ENDPROC       RA8876_I2CM_ARBITRATION
  -------         PROC          _SET_GPIO_A_IN_OUT
  D:0006H         SYMBOL        temp
  C:E6E7H         LINE#         7635
  C:E6E9H         LINE#         7636
  C:E6E9H         LINE#         7642
  C:E6EEH         LINE#         7643
  -------         ENDPROC       _SET_GPIO_A_IN_OUT
  -------         PROC          _WRITE_GPIO_A_7_0
  D:0006H         SYMBOL        temp
  C:E6F5H         LINE#         7646
  C:E6F7H         LINE#         7647
  C:E6F7H         LINE#         7652
  C:E6FCH         LINE#         7653
  -------         ENDPROC       _WRITE_GPIO_A_7_0
  -------         PROC          READ_GPIO_A_7_0
  -------         DO            
  D:0007H         SYMBOL        temp
  -------         ENDDO         
  C:E88DH         LINE#         7655
  C:E88DH         LINE#         7656
  C:E88DH         LINE#         7662
  C:E892H         LINE#         7663
  C:E895H         LINE#         7664
  C:E895H         LINE#         7665
  -------         ENDPROC       READ_GPIO_A_7_0
  -------         PROC          _WRITE_GPIO_B_7_4
  D:0006H         SYMBOL        temp
  C:E703H         LINE#         7667
  C:E705H         LINE#         7668
  C:E705H         LINE#         7673
  C:E70AH         LINE#         7674
  -------         ENDPROC       _WRITE_GPIO_B_7_4
  -------         PROC          READ_GPIO_B_7_0
  -------         DO            
  D:0007H         SYMBOL        temp
BL51 BANKED LINKER/LOCATER V6.22                                                      08/26/2015  16:38:21  PAGE 138


  -------         ENDDO         
  C:E896H         LINE#         7676
  C:E896H         LINE#         7677
  C:E896H         LINE#         7683
  C:E89BH         LINE#         7684
  C:E89EH         LINE#         7685
  C:E89EH         LINE#         7686
  -------         ENDPROC       READ_GPIO_B_7_0
  -------         PROC          _SET_GPIO_C_IN_OUT
  D:0006H         SYMBOL        temp
  C:E711H         LINE#         7689
  C:E713H         LINE#         7690
  C:E713H         LINE#         7696
  C:E718H         LINE#         7697
  -------         ENDPROC       _SET_GPIO_C_IN_OUT
  -------         PROC          _WRITE_GPIO_C_7_0
  D:0006H         SYMBOL        temp
  C:E71FH         LINE#         7700
  C:E721H         LINE#         7701
  C:E721H         LINE#         7706
  C:E726H         LINE#         7707
  -------         ENDPROC       _WRITE_GPIO_C_7_0
  -------         PROC          READ_GPIO_C_7_0
  -------         DO            
  D:0007H         SYMBOL        temp
  -------         ENDDO         
  C:E89FH         LINE#         7709
  C:E89FH         LINE#         7710
  C:E89FH         LINE#         7716
  C:E8A4H         LINE#         7717
  C:E8A7H         LINE#         7718
  C:E8A7H         LINE#         7719
  -------         ENDPROC       READ_GPIO_C_7_0
  -------         PROC          _SET_GPIO_D_IN_OUT
  D:0006H         SYMBOL        temp
  C:E72DH         LINE#         7721
  C:E72FH         LINE#         7722
  C:E72FH         LINE#         7728
  C:E734H         LINE#         7729
  -------         ENDPROC       _SET_GPIO_D_IN_OUT
  -------         PROC          _WRITE_GPIO_D_7_0
  D:0006H         SYMBOL        temp
  C:E73BH         LINE#         7732
  C:E73DH         LINE#         7733
  C:E73DH         LINE#         7737
  C:E742H         LINE#         7738
  -------         ENDPROC       _WRITE_GPIO_D_7_0
  -------         PROC          READ_GPIO_D_7_0
  -------         DO            
  D:0007H         SYMBOL        temp
  -------         ENDDO         
  C:E8A8H         LINE#         7740
  C:E8A8H         LINE#         7741
  C:E8A8H         LINE#         7746
  C:E8ADH         LINE#         7747
  C:E8B0H         LINE#         7748
  C:E8B0H         LINE#         7749
BL51 BANKED LINKER/LOCATER V6.22                                                      08/26/2015  16:38:21  PAGE 139


  -------         ENDPROC       READ_GPIO_D_7_0
  -------         PROC          _SET_GPIO_E_IN_OUT
  D:0006H         SYMBOL        temp
  C:E749H         LINE#         7751
  C:E74BH         LINE#         7752
  C:E74BH         LINE#         7758
  C:E750H         LINE#         7759
  -------         ENDPROC       _SET_GPIO_E_IN_OUT
  -------         PROC          _WRITE_GPIO_E_7_0
  D:0006H         SYMBOL        temp
  C:E757H         LINE#         7762
  C:E759H         LINE#         7763
  C:E759H         LINE#         7768
  C:E75EH         LINE#         7769
  -------         ENDPROC       _WRITE_GPIO_E_7_0
  -------         PROC          READ_GPIO_E_7_0
  -------         DO            
  D:0007H         SYMBOL        temp
  -------         ENDDO         
  C:E8B1H         LINE#         7771
  C:E8B1H         LINE#         7772
  C:E8B1H         LINE#         7778
  C:E8B6H         LINE#         7779
  C:E8B9H         LINE#         7780
  C:E8B9H         LINE#         7781
  -------         ENDPROC       READ_GPIO_E_7_0
  -------         PROC          _SET_GPIO_F_IN_OUT
  D:0006H         SYMBOL        temp
  C:E765H         LINE#         7783
  C:E767H         LINE#         7784
  C:E767H         LINE#         7790
  C:E76CH         LINE#         7791
  -------         ENDPROC       _SET_GPIO_F_IN_OUT
  -------         PROC          _WRITE_GPIO_F_7_0
  D:0006H         SYMBOL        temp
  C:E773H         LINE#         7794
  C:E775H         LINE#         7795
  C:E775H         LINE#         7800
  C:E77AH         LINE#         7801
  -------         ENDPROC       _WRITE_GPIO_F_7_0
  -------         PROC          READ_GPIO_F_7_0
  -------         DO            
  D:0007H         SYMBOL        temp
  -------         ENDDO         
  C:E8BAH         LINE#         7803
  C:E8BAH         LINE#         7804
  C:E8BAH         LINE#         7810
  C:E8BFH         LINE#         7811
  C:E8C2H         LINE#         7812
  C:E8C2H         LINE#         7813
  -------         ENDPROC       READ_GPIO_F_7_0
  -------         PROC          LONG_KEY_ENABLE
  -------         DO            
  D:0007H         SYMBOL        temp
  -------         ENDDO         
  C:E501H         LINE#         7818
  C:E501H         LINE#         7819
BL51 BANKED LINKER/LOCATER V6.22                                                      08/26/2015  16:38:21  PAGE 140


  C:E501H         LINE#         7827
  C:E506H         LINE#         7828
  C:E509H         LINE#         7829
  C:E50DH         LINE#         7830
  -------         ENDPROC       LONG_KEY_ENABLE
  -------         PROC          _KEY_SCAN_FREG
  D:0006H         SYMBOL        setx
  -------         DO            
  D:0007H         SYMBOL        temp
  -------         ENDDO         
  C:D14BH         LINE#         7834
  C:D14DH         LINE#         7835
  C:D14DH         LINE#         7838
  C:D152H         LINE#         7839
  C:D155H         LINE#         7840
  C:D159H         LINE#         7841
  C:D15EH         LINE#         7842
  -------         ENDPROC       _KEY_SCAN_FREG
  -------         PROC          KEY_SCAN_WAKEUP_FUNCTION_ENABLE
  -------         DO            
  D:0007H         SYMBOL        temp
  -------         ENDDO         
  C:E512H         LINE#         7848
  C:E512H         LINE#         7849
  C:E512H         LINE#         7858
  C:E517H         LINE#         7859
  C:E51AH         LINE#         7860
  C:E51EH         LINE#         7861
  -------         ENDPROC       KEY_SCAN_WAKEUP_FUNCTION_ENABLE
  -------         PROC          _LONG_KEY_TIMING_ADJUSTMENT
  D:0007H         SYMBOL        setx
  -------         DO            
  D:0006H         SYMBOL        temp
  D:0007H         SYMBOL        temp1
  -------         ENDDO         
  C:D2F4H         LINE#         7865
  C:D2F4H         LINE#         7866
  C:D2F4H         LINE#         7869
  C:D2F8H         LINE#         7870
  C:D2FDH         LINE#         7871
  C:D300H         LINE#         7872
  C:D303H         LINE#         7873
  -------         ENDPROC       _LONG_KEY_TIMING_ADJUSTMENT
  -------         PROC          NUMBERS_OF_KEY_HIT
  -------         DO            
  D:0007H         SYMBOL        temp
  -------         ENDDO         
  C:E79BH         LINE#         7877
  C:E79BH         LINE#         7878
  C:E79BH         LINE#         7880
  C:E7A0H         LINE#         7881
  C:E7A3H         LINE#         7882
  C:E7A7H         LINE#         7883
  C:E7A7H         LINE#         7884
  -------         ENDPROC       NUMBERS_OF_KEY_HIT
  -------         PROC          READ_KEY_STROBE_DATA_0
  -------         DO            
BL51 BANKED LINKER/LOCATER V6.22                                                      08/26/2015  16:38:21  PAGE 141


  D:0007H         SYMBOL        temp
  -------         ENDDO         
  C:E8C3H         LINE#         7887
  C:E8C3H         LINE#         7888
  C:E8C3H         LINE#         7894
  C:E8C8H         LINE#         7895
  C:E8CBH         LINE#         7896
  C:E8CBH         LINE#         7897
  -------         ENDPROC       READ_KEY_STROBE_DATA_0
  -------         PROC          READ_KEY_STROBE_DATA_1
  -------         DO            
  D:0007H         SYMBOL        temp
  -------         ENDDO         
  C:E8CCH         LINE#         7898
  C:E8CCH         LINE#         7899
  C:E8CCH         LINE#         7905
  C:E8D1H         LINE#         7906
  C:E8D4H         LINE#         7907
  C:E8D4H         LINE#         7908
  -------         ENDPROC       READ_KEY_STROBE_DATA_1
  -------         PROC          READ_KEY_STROBE_DATA_2
  -------         DO            
  D:0007H         SYMBOL        temp
  -------         ENDDO         
  C:E8D5H         LINE#         7909
  C:E8D5H         LINE#         7910
  C:E8D5H         LINE#         7916
  C:E8DAH         LINE#         7917
  C:E8DDH         LINE#         7918
  C:E8DDH         LINE#         7919
  -------         ENDPROC       READ_KEY_STROBE_DATA_2
  C:C92CH         SYMBOL        L?1123
  C:C92FH         SYMBOL        L?1124
  -------         PROC          L?1122
  -------         ENDPROC       L?1122
  C:C92CH         SYMBOL        L?1123
  C:C92FH         SYMBOL        L?1124
  -------         PROC          _SHOW_STRING
  D:0001H         SYMBOL        str
  C:C93AH         LINE#         7923
  C:C93AH         LINE#         7924
  C:C93AH         LINE#         7925
  C:C93DH         LINE#         7926
  C:C942H         LINE#         7927
  C:C948H         LINE#         7928
  C:C948H         LINE#         7929
  C:C94FH         LINE#         7930
  C:C952H         LINE#         7931
  C:C959H         LINE#         7932
  C:C95BH         LINE#         7933
  C:C95EH         LINE#         7935
  -------         ENDPROC       _SHOW_STRING
  -------         PROC          _SHOW_PICTURE
  X:0217H         SYMBOL        numbers
  X:021BH         SYMBOL        datap
  -------         DO            
  X:021EH         SYMBOL        i
BL51 BANKED LINKER/LOCATER V6.22                                                      08/26/2015  16:38:21  PAGE 142


  -------         ENDDO         
  C:B60FH         LINE#         7939
  C:B620H         LINE#         7940
  C:B620H         LINE#         7943
  C:B625H         LINE#         7944
  C:B64FH         LINE#         7945
  C:B64FH         LINE#         7946
  C:B679H         LINE#         7947
  C:B6A4H         LINE#         7948
  C:B6A7H         LINE#         7949
  C:B6C9H         LINE#         7951
  -------         ENDPROC       _SHOW_PICTURE
  -------         PROC          L?1156
  -------         ENDPROC       L?1156
  -------         PROC          _SHOW_PICTURE1
  X:021BH         SYMBOL        numbers
  X:021FH         SYMBOL        datap
  -------         DO            
  X:0222H         SYMBOL        i
  -------         ENDDO         
  C:B3BEH         LINE#         7953
  C:B3CFH         LINE#         7954
  C:B3CFH         LINE#         7957
  C:B3D4H         LINE#         7958
  C:B401H         LINE#         7959
  C:B401H         LINE#         7960
  C:B42DH         LINE#         7961
  C:B45BH         LINE#         7962
  C:B45EH         LINE#         7963
  C:B480H         LINE#         7965
  -------         ENDPROC       _SHOW_PICTURE1
  -------         PROC          GRAPHIC_CURSOR_INITIAL
  -------         DO            
  D:0004H         SYMBOL        i
  -------         ENDDO         
  C:B826H         LINE#         7967
  C:B826H         LINE#         7968
  C:B826H         LINE#         7972
  C:B829H         LINE#         7973
  C:B82CH         LINE#         7975
  C:B82FH         LINE#         7976
  C:B834H         LINE#         7977
  C:B837H         LINE#         7978
  C:B837H         LINE#         7979
  C:B842H         LINE#         7980
  C:B84FH         LINE#         7982
  C:B852H         LINE#         7983
  C:B857H         LINE#         7984
  C:B85AH         LINE#         7985
  C:B85AH         LINE#         7986
  C:B865H         LINE#         7987
  C:B872H         LINE#         7989
  C:B875H         LINE#         7990
  C:B87AH         LINE#         7991
  C:B87DH         LINE#         7992
  C:B87DH         LINE#         7993
  C:B888H         LINE#         7995
BL51 BANKED LINKER/LOCATER V6.22                                                      08/26/2015  16:38:21  PAGE 143


  C:B895H         LINE#         7997
  C:B898H         LINE#         7998
  C:B89DH         LINE#         7999
  C:B8A0H         LINE#         8000
  C:B8A0H         LINE#         8001
  C:B8ABH         LINE#         8003
  C:B8B8H         LINE#         8005
  C:B8BBH         LINE#         8007
  C:B8BBH         LINE#         8008
  C:B8BEH         LINE#         8009
  C:B8C5H         LINE#         8010
  -------         ENDPROC       GRAPHIC_CURSOR_INITIAL
  -------         PROC          TEXT_CURSOR_INITIAL
  C:D18FH         LINE#         8014
  C:D18FH         LINE#         8015
  C:D18FH         LINE#         8018
  C:D192H         LINE#         8020
  C:D197H         LINE#         8022
  C:D1A2H         LINE#         8023
  -------         ENDPROC       TEXT_CURSOR_INITIAL
  -------         PROC          BTE_COMPARE
  -------         DO            
  D:0002H         SYMBOL        i
  D:0004H         SYMBOL        temp
  X:0213H         SYMBOL        im
  -------         ENDDO         
  C:97ABH         LINE#         11
  C:97ABH         LINE#         12
  C:97ABH         LINE#         14
  C:97B5H         LINE#         17
  C:97B8H         LINE#         18
  C:97B8H         LINE#         19
  C:97B8H         LINE#         20
  C:97B8H         LINE#         22
  C:97B8H         LINE#         23
  C:97B8H         LINE#         24
  C:97B8H         LINE#         25
  C:97BBH         LINE#         27
  C:97BDH         LINE#         28
  C:97C0H         LINE#         29
  C:97C2H         LINE#         30
  C:97C5H         LINE#         32
  C:97C8H         LINE#         33
  C:97D2H         LINE#         34
  C:97D4H         LINE#         35
  C:97D7H         LINE#         44
  C:97D7H         LINE#         45
  C:97DAH         LINE#         46
  C:97DDH         LINE#         47
  C:97E0H         LINE#         48
  C:97E3H         LINE#         49
  C:97ECH         LINE#         50
  C:97ECH         LINE#         51
  C:97ECH         LINE#         52
  C:97EFH         LINE#         53
  C:97F4H         LINE#         54
  C:97FDH         LINE#         58
BL51 BANKED LINKER/LOCATER V6.22                                                      08/26/2015  16:38:21  PAGE 144


  C:9800H         LINE#         59
  C:9803H         LINE#         60
  C:9806H         LINE#         61
  C:9809H         LINE#         64
  C:980CH         LINE#         67
  C:980FH         LINE#         71
  C:9812H         LINE#         75
  C:9817H         LINE#         78
  C:9820H         LINE#         79
  C:9826H         LINE#         80
  C:9829H         LINE#         82
  C:9830H         LINE#         83
  C:9833H         LINE#         84
  C:9836H         LINE#         86
  C:9841H         LINE#         87
  C:9847H         LINE#         88
  C:984AH         LINE#         90
  C:9855H         LINE#         91
  C:9858H         LINE#         92
  C:985BH         LINE#         94
  C:9866H         LINE#         95
  C:986CH         LINE#         96
  C:986FH         LINE#         98
  C:9872H         LINE#         99
  C:9875H         LINE#         100
  C:9878H         LINE#         103
  C:9879H         LINE#         104
  C:9879H         LINE#         105
  C:987CH         LINE#         106
  C:987FH         LINE#         107
  C:988AH         LINE#         108
  C:9893H         LINE#         109
  C:989CH         LINE#         110
  C:98A5H         LINE#         111
  C:98AEH         LINE#         112
  C:98B7H         LINE#         113
  C:98C0H         LINE#         114
  C:98C9H         LINE#         115
  C:98D2H         LINE#         116
  C:98DBH         LINE#         118
  C:98E2H         LINE#         123
  C:98ECH         LINE#         124
  C:98F5H         LINE#         126
  C:98FEH         LINE#         127
  C:9903H         LINE#         128
  C:9908H         LINE#         129
  C:990BH         LINE#         131
  C:990EH         LINE#         132
  C:990EH         LINE#         133
  C:9915H         LINE#         135
  C:991AH         LINE#         136
  C:991DH         LINE#         137
  C:9921H         LINE#         138
  C:9927H         LINE#         139
  C:9927H         LINE#         140
  C:992AH         LINE#         141
  C:9935H         LINE#         144
BL51 BANKED LINKER/LOCATER V6.22                                                      08/26/2015  16:38:21  PAGE 145


  C:9935H         LINE#         145
  C:9938H         LINE#         149
  C:9939H         LINE#         150
  C:9939H         LINE#         151
  C:993CH         LINE#         152
  C:993FH         LINE#         153
  C:994AH         LINE#         154
  C:9953H         LINE#         156
  C:995AH         LINE#         164
  C:995DH         LINE#         166
  C:9960H         LINE#         167
  C:9961H         LINE#         168
  C:9964H         LINE#         169
  C:9968H         LINE#         171
  C:996BH         LINE#         172
  C:996BH         LINE#         173
  C:996EH         LINE#         174
  C:9972H         LINE#         175
  C:9975H         LINE#         177
  C:997AH         LINE#         178
  C:997FH         LINE#         179
  C:9982H         LINE#         181
  C:9987H         LINE#         182
  C:998AH         LINE#         183
  C:998AH         LINE#         184
  C:9991H         LINE#         185
  C:9993H         LINE#         186
  C:9996H         LINE#         187
  C:99A1H         LINE#         188
  C:99A4H         LINE#         189
  C:99A7H         LINE#         195
  C:99A8H         LINE#         196
  C:99A8H         LINE#         197
  C:99ABH         LINE#         198
  C:99AEH         LINE#         199
  C:99B9H         LINE#         200
  C:99C2H         LINE#         201
  C:99C9H         LINE#         208
  C:99D0H         LINE#         209
  C:99D0H         LINE#         210
  C:99D0H         LINE#         211
  C:99D3H         LINE#         213
  C:99D7H         LINE#         214
  C:99DAH         LINE#         215
  C:99E3H         LINE#         216
  C:99E6H         LINE#         219
  C:99E9H         LINE#         220
  C:99EFH         LINE#         221
  C:99EFH         LINE#         222
  C:99F2H         LINE#         224
  C:99F5H         LINE#         225
  C:99F5H         LINE#         226
  C:99F8H         LINE#         227
  C:99FCH         LINE#         229
  C:99FFH         LINE#         230
  C:99FFH         LINE#         231
  C:9A02H         LINE#         232
BL51 BANKED LINKER/LOCATER V6.22                                                      08/26/2015  16:38:21  PAGE 146


  C:9A06H         LINE#         233
  C:9A09H         LINE#         235
  C:9A0EH         LINE#         236
  C:9A13H         LINE#         237
  C:9A16H         LINE#         238
  C:9A19H         LINE#         243
  C:9A22H         LINE#         244
  C:9A23H         LINE#         245
  C:9A23H         LINE#         246
  C:9A26H         LINE#         247
  C:9A29H         LINE#         248
  C:9A34H         LINE#         249
  C:9A3DH         LINE#         250
  C:9A44H         LINE#         251
  -------         ENDPROC       BTE_COMPARE
  -------         PROC          BTE_COLOR_EXPANSION
  -------         DO            
  X:0213H         SYMBOL        i
  X:0215H         SYMBOL        j
  X:0217H         SYMBOL        im
  -------         ENDDO         
  C:A121H         LINE#         256
  C:A121H         LINE#         257
  C:A121H         LINE#         258
  C:A12BH         LINE#         260
  C:A12EH         LINE#         261
  C:A12EH         LINE#         262
  C:A12EH         LINE#         263
  C:A12EH         LINE#         265
  C:A12EH         LINE#         266
  C:A12EH         LINE#         267
  C:A12EH         LINE#         268
  C:A131H         LINE#         270
  C:A131H         LINE#         271
  C:A134H         LINE#         272
  C:A136H         LINE#         273
  C:A139H         LINE#         275
  C:A13CH         LINE#         276
  C:A146H         LINE#         277
  C:A148H         LINE#         278
  C:A14BH         LINE#         282
  C:A14BH         LINE#         283
  C:A14EH         LINE#         284
  C:A151H         LINE#         285
  C:A154H         LINE#         286
  C:A157H         LINE#         287
  C:A160H         LINE#         291
  C:A163H         LINE#         292
  C:A166H         LINE#         293
  C:A169H         LINE#         294
  C:A16CH         LINE#         297
  C:A16FH         LINE#         300
  C:A172H         LINE#         304
  C:A175H         LINE#         308
  C:A175H         LINE#         311
  C:A175H         LINE#         312
  C:A175H         LINE#         313
BL51 BANKED LINKER/LOCATER V6.22                                                      08/26/2015  16:38:21  PAGE 147


  C:A178H         LINE#         315
  C:A183H         LINE#         316
  C:A186H         LINE#         317
  C:A189H         LINE#         323
  C:A190H         LINE#         325
  C:A190H         LINE#         326
  C:A197H         LINE#         327
  C:A197H         LINE#         329
  C:A19BH         LINE#         330
  C:A19BH         LINE#         331
  C:A19EH         LINE#         332
  C:A1A0H         LINE#         333
  C:A1A3H         LINE#         335
  C:A1A6H         LINE#         336
  C:A1A9H         LINE#         338
  C:A1ACH         LINE#         340
  C:A1AFH         LINE#         342
  C:A1B2H         LINE#         343
  C:A1BAH         LINE#         344
  C:A1BDH         LINE#         345
  C:A1C4H         LINE#         346
  C:A1CDH         LINE#         347
  C:A1D4H         LINE#         348
  C:A1DBH         LINE#         349
  C:A1E0H         LINE#         350
  C:A1E5H         LINE#         352
  C:A1E8H         LINE#         353
  C:A1EDH         LINE#         355
  C:A203H         LINE#         356
  C:A203H         LINE#         357
  C:A203H         LINE#         358
  C:A209H         LINE#         359
  C:A209H         LINE#         360
  C:A209H         LINE#         361
  C:A20BH         LINE#         362
  C:A20BH         LINE#         363
  C:A211H         LINE#         364
  C:A211H         LINE#         365
  C:A211H         LINE#         366
  C:A213H         LINE#         367
  C:A213H         LINE#         368
  C:A21CH         LINE#         369
  C:A21FH         LINE#         370
  C:A222H         LINE#         371
  C:A222H         LINE#         372
  C:A222H         LINE#         373
  C:A222H         LINE#         374
  C:A222H         LINE#         377
  C:A223H         LINE#         378
  C:A223H         LINE#         379
  C:A226H         LINE#         380
  C:A229H         LINE#         381
  C:A234H         LINE#         382
  C:A23DH         LINE#         386
  C:A244H         LINE#         387
  C:A24BH         LINE#         389
  C:A250H         LINE#         390
BL51 BANKED LINKER/LOCATER V6.22                                                      08/26/2015  16:38:21  PAGE 148


  C:A257H         LINE#         391
  C:A25AH         LINE#         392
  C:A25FH         LINE#         394
  C:A275H         LINE#         395
  C:A275H         LINE#         396
  C:A275H         LINE#         397
  C:A27BH         LINE#         398
  C:A27BH         LINE#         399
  C:A27BH         LINE#         400
  C:A27DH         LINE#         401
  C:A27DH         LINE#         402
  C:A283H         LINE#         403
  C:A283H         LINE#         404
  C:A283H         LINE#         405
  C:A285H         LINE#         406
  C:A285H         LINE#         407
  C:A28EH         LINE#         408
  C:A291H         LINE#         409
  C:A294H         LINE#         410
  C:A294H         LINE#         411
  C:A294H         LINE#         412
  C:A294H         LINE#         413
  C:A294H         LINE#         416
  C:A295H         LINE#         417
  C:A295H         LINE#         418
  C:A298H         LINE#         419
  C:A29BH         LINE#         420
  C:A2A6H         LINE#         421
  C:A2AFH         LINE#         422
  C:A2B8H         LINE#         423
  C:A2C1H         LINE#         425
  C:A2C8H         LINE#         426
  C:A2CFH         LINE#         430
  C:A2CFH         LINE#         431
  C:A2CFH         LINE#         432
  C:A2CFH         LINE#         435
  C:A2CFH         LINE#         436
  C:A2D2H         LINE#         437
  C:A2DAH         LINE#         438
  C:A2DCH         LINE#         440
  C:A2DFH         LINE#         441
  C:A2E4H         LINE#         442
  C:A2E7H         LINE#         443
  C:A2EAH         LINE#         446
  C:A2F8H         LINE#         447
  C:A318H         LINE#         449
  C:A32AH         LINE#         451
  -------         ENDPROC       BTE_COLOR_EXPANSION
  -------         PROC          BTE_PATTERN_FILL
  -------         DO            
  X:0213H         SYMBOL        im
  -------         ENDDO         
  C:AA93H         LINE#         457
  C:AA93H         LINE#         458
  C:AA9DH         LINE#         460
  C:AAA0H         LINE#         461
  C:AAA0H         LINE#         462
BL51 BANKED LINKER/LOCATER V6.22                                                      08/26/2015  16:38:21  PAGE 149


  C:AAA0H         LINE#         463
  C:AAA0H         LINE#         465
  C:AAA0H         LINE#         466
  C:AAA0H         LINE#         467
  C:AAA0H         LINE#         468
  C:AAA3H         LINE#         470
  C:AAA3H         LINE#         471
  C:AAA6H         LINE#         472
  C:AAA8H         LINE#         473
  C:AAABH         LINE#         475
  C:AAAEH         LINE#         476
  C:AAB8H         LINE#         477
  C:AABAH         LINE#         478
  C:AABDH         LINE#         481
  C:AABDH         LINE#         482
  C:AAC0H         LINE#         483
  C:AAC3H         LINE#         484
  C:AAC6H         LINE#         485
  C:AAC9H         LINE#         486
  C:AAD2H         LINE#         489
  C:AAD5H         LINE#         490
  C:AAD8H         LINE#         491
  C:AADBH         LINE#         492
  C:AADEH         LINE#         495
  C:AAE1H         LINE#         498
  C:AAE4H         LINE#         502
  C:AAE7H         LINE#         506
  C:AAE7H         LINE#         509
  C:AAE7H         LINE#         510
  C:AAE7H         LINE#         511
  C:AAEAH         LINE#         513
  C:AAF5H         LINE#         514
  C:AAF8H         LINE#         515
  C:AAFBH         LINE#         519
  C:AAFEH         LINE#         520
  C:AB03H         LINE#         521
  C:AB07H         LINE#         522
  C:AB0AH         LINE#         523
  C:AB10H         LINE#         524
  C:AB13H         LINE#         525
  C:AB22H         LINE#         527
  C:AB2AH         LINE#         528
  C:AB2AH         LINE#         529
  C:AB2AH         LINE#         530
  C:AB2DH         LINE#         533
  C:AB30H         LINE#         534
  C:AB3BH         LINE#         535
  C:AB42H         LINE#         537
  C:AB45H         LINE#         538
  C:AB47H         LINE#         539
  C:AB4AH         LINE#         541
  C:AB4DH         LINE#         542
  C:AB55H         LINE#         543
  C:AB58H         LINE#         545
  C:AB5DH         LINE#         546
  C:AB62H         LINE#         548
  C:AB65H         LINE#         549
BL51 BANKED LINKER/LOCATER V6.22                                                      08/26/2015  16:38:21  PAGE 150


  C:AB6EH         LINE#         550
  C:AB78H         LINE#         552
  C:AB7BH         LINE#         553
  C:AB7EH         LINE#         555
  C:AB7FH         LINE#         556
  C:AB7FH         LINE#         557
  C:AB82H         LINE#         558
  C:AB85H         LINE#         559
  C:AB90H         LINE#         560
  C:AB99H         LINE#         562
  C:ABA0H         LINE#         563
  C:ABA3H         LINE#         564
  C:ABACH         LINE#         565
  C:ABB6H         LINE#         566
  C:ABBBH         LINE#         568
  C:ABBEH         LINE#         569
  C:ABC1H         LINE#         571
  C:ABC2H         LINE#         572
  C:ABC2H         LINE#         573
  C:ABC5H         LINE#         574
  C:ABC8H         LINE#         575
  C:ABD3H         LINE#         576
  C:ABDCH         LINE#         578
  C:ABDDH         LINE#         579
  C:ABDDH         LINE#         580
  C:ABE0H         LINE#         581
  C:ABE3H         LINE#         582
  C:ABEEH         LINE#         583
  C:ABF7H         LINE#         584
  C:ABFEH         LINE#         585
  -------         ENDPROC       BTE_PATTERN_FILL
  -------         PROC          PIP_DEMO
  -------         DO            
  X:0213H         SYMBOL        i
  X:0217H         SYMBOL        im
  -------         ENDDO         
  C:840FH         LINE#         589
  C:840FH         LINE#         590
  C:840FH         LINE#         591
  C:8419H         LINE#         593
  C:841CH         LINE#         594
  C:841CH         LINE#         595
  C:841CH         LINE#         596
  C:841CH         LINE#         598
  C:841CH         LINE#         599
  C:841CH         LINE#         600
  C:841CH         LINE#         601
  C:841FH         LINE#         603
  C:8421H         LINE#         604
  C:8424H         LINE#         605
  C:8426H         LINE#         606
  C:8429H         LINE#         608
  C:842CH         LINE#         609
  C:8436H         LINE#         610
  C:8438H         LINE#         611
  C:843BH         LINE#         613
  C:843BH         LINE#         614
BL51 BANKED LINKER/LOCATER V6.22                                                      08/26/2015  16:38:21  PAGE 151


  C:843EH         LINE#         615
  C:8441H         LINE#         616
  C:8444H         LINE#         617
  C:8447H         LINE#         618
  C:8450H         LINE#         621
  C:8453H         LINE#         622
  C:845AH         LINE#         623
  C:845DH         LINE#         624
  C:845DH         LINE#         625
  C:8460H         LINE#         626
  C:8460H         LINE#         627
  C:8463H         LINE#         628
  C:8468H         LINE#         629
  C:848EH         LINE#         630
  C:848EH         LINE#         631
  C:8495H         LINE#         632
  C:849AH         LINE#         634
  C:84BBH         LINE#         635
  C:84BEH         LINE#         638
  C:84C5H         LINE#         639
  C:84CCH         LINE#         640
  C:84CFH         LINE#         641
  C:84D2H         LINE#         642
  C:84DDH         LINE#         643
  C:84E6H         LINE#         648
  C:84EFH         LINE#         649
  C:84EFH         LINE#         650
  C:84F2H         LINE#         651
  C:84F2H         LINE#         652
  C:84F5H         LINE#         653
  C:84FAH         LINE#         654
  C:8520H         LINE#         655
  C:8520H         LINE#         656
  C:8527H         LINE#         657
  C:852EH         LINE#         659
  C:854FH         LINE#         660
  C:8552H         LINE#         662
  C:8559H         LINE#         663
  C:8560H         LINE#         664
  C:8563H         LINE#         665
  C:8566H         LINE#         666
  C:8571H         LINE#         667
  C:857AH         LINE#         671
  C:857DH         LINE#         672
  C:8580H         LINE#         673
  C:8584H         LINE#         674
  C:8584H         LINE#         675
  C:8584H         LINE#         676
  C:8587H         LINE#         677
  C:8590H         LINE#         678
  C:8593H         LINE#         679
  C:859AH         LINE#         682
  C:859DH         LINE#         683
  C:85A0H         LINE#         684
  C:85A4H         LINE#         685
  C:85A4H         LINE#         686
  C:85A4H         LINE#         687
BL51 BANKED LINKER/LOCATER V6.22                                                      08/26/2015  16:38:21  PAGE 152


  C:85A7H         LINE#         688
  C:85B1H         LINE#         689
  C:85B4H         LINE#         690
  C:85BBH         LINE#         693
  C:85DFH         LINE#         694
  C:85DFH         LINE#         695
  C:85E2H         LINE#         696
  C:85FAH         LINE#         698
  C:85FAH         LINE#         699
  C:85FDH         LINE#         700
  C:85FDH         LINE#         702
  C:8600H         LINE#         703
  C:8622H         LINE#         705
  C:8646H         LINE#         706
  C:8646H         LINE#         707
  C:8649H         LINE#         708
  C:8649H         LINE#         710
  C:8649H         LINE#         711
  C:864CH         LINE#         712
  C:8664H         LINE#         714
  C:8667H         LINE#         715
  C:8689H         LINE#         717
  C:8690H         LINE#         721
  C:8693H         LINE#         722
  C:8696H         LINE#         723
  C:8699H         LINE#         724
  C:869CH         LINE#         727
  C:869FH         LINE#         730
  C:86A2H         LINE#         734
  C:86A5H         LINE#         738
  C:86AAH         LINE#         740
  C:86B0H         LINE#         741
  C:86B0H         LINE#         743
  C:86B3H         LINE#         744
  C:86B9H         LINE#         745
  C:86BCH         LINE#         746
  C:86BFH         LINE#         747
  C:86C2H         LINE#         748
  C:86C5H         LINE#         750
  C:86CDH         LINE#         751
  C:86CDH         LINE#         753
  C:86D0H         LINE#         754
  C:86D6H         LINE#         755
  C:86D9H         LINE#         756
  C:86E4H         LINE#         757
  C:86E7H         LINE#         758
  C:86EAH         LINE#         761
  C:870EH         LINE#         762
  C:870EH         LINE#         763
  C:8711H         LINE#         764
  C:8729H         LINE#         766
  C:8729H         LINE#         767
  C:872CH         LINE#         768
  C:872CH         LINE#         770
  C:872FH         LINE#         771
  C:8751H         LINE#         773
  C:8775H         LINE#         774
BL51 BANKED LINKER/LOCATER V6.22                                                      08/26/2015  16:38:21  PAGE 153


  C:8775H         LINE#         775
  C:8778H         LINE#         776
  C:8778H         LINE#         778
  C:8778H         LINE#         779
  C:877BH         LINE#         780
  C:8793H         LINE#         782
  C:8796H         LINE#         783
  C:87B8H         LINE#         785
  C:87BFH         LINE#         786
  C:87C2H         LINE#         788
  C:87C5H         LINE#         789
  -------         ENDPROC       PIP_DEMO
  -------         PROC          APP_DEMO_WAVEFORM
  -------         DO            
  X:0213H         SYMBOL        i
  X:0215H         SYMBOL        h
  X:0217H         SYMBOL        point1y
  X:0219H         SYMBOL        point2y
  X:021BH         SYMBOL        point21y
  X:021DH         SYMBOL        point22y
  X:021FH         SYMBOL        point31y
  X:0221H         SYMBOL        point32y
  -------         ENDDO         
  C:91E8H         LINE#         794
  C:91E8H         LINE#         795
  C:91E8H         LINE#         801
  C:91EFH         LINE#         802
  C:91F5H         LINE#         803
  C:91FBH         LINE#         809
  C:91FEH         LINE#         810
  C:91FEH         LINE#         811
  C:91FEH         LINE#         812
  C:91FEH         LINE#         814
  C:91FEH         LINE#         815
  C:91FEH         LINE#         816
  C:91FEH         LINE#         817
  C:9201H         LINE#         819
  C:9205H         LINE#         820
  C:9208H         LINE#         821
  C:920AH         LINE#         822
  C:920DH         LINE#         824
  C:9210H         LINE#         825
  C:921AH         LINE#         826
  C:921CH         LINE#         827
  C:921FH         LINE#         830
  C:921FH         LINE#         831
  C:9222H         LINE#         832
  C:9225H         LINE#         833
  C:9228H         LINE#         834
  C:922BH         LINE#         835
  C:9234H         LINE#         838
  C:923BH         LINE#         839
  C:9242H         LINE#         840
  C:9245H         LINE#         841
  C:9248H         LINE#         842
  C:924DH         LINE#         843
  C:9256H         LINE#         846
BL51 BANKED LINKER/LOCATER V6.22                                                      08/26/2015  16:38:21  PAGE 154


  C:9259H         LINE#         850
  C:9259H         LINE#         851
  C:9259H         LINE#         852
  C:9259H         LINE#         853
  C:925CH         LINE#         855
  C:9272H         LINE#         856
  C:9272H         LINE#         857
  C:9279H         LINE#         858
  C:9284H         LINE#         859
  C:9292H         LINE#         860
  C:9295H         LINE#         861
  C:92A5H         LINE#         863
  C:92BBH         LINE#         864
  C:92BBH         LINE#         865
  C:92C2H         LINE#         866
  C:92CDH         LINE#         867
  C:92D4H         LINE#         868
  C:92D7H         LINE#         869
  C:92E7H         LINE#         872
  C:92EAH         LINE#         873
  C:92EAH         LINE#         874
  C:92EAH         LINE#         875
  C:92EDH         LINE#         882
  C:92F0H         LINE#         883
  C:92F0H         LINE#         884
  C:92F3H         LINE#         885
  C:92FEH         LINE#         886
  C:9305H         LINE#         889
  C:9308H         LINE#         890
  C:930DH         LINE#         891
  C:9310H         LINE#         892
  C:9313H         LINE#         895
  C:931DH         LINE#         897
  C:9324H         LINE#         898
  C:9324H         LINE#         899
  C:933EH         LINE#         900
  C:933EH         LINE#         902
  C:9344H         LINE#         904
  C:9357H         LINE#         905
  C:9361H         LINE#         906
  C:9364H         LINE#         907
  C:9367H         LINE#         910
  C:9376H         LINE#         911
  C:9388H         LINE#         913
  C:9397H         LINE#         914
  C:93A9H         LINE#         916
  C:93B8H         LINE#         917
  C:93CAH         LINE#         919
  C:93D1H         LINE#         920
  C:93F0H         LINE#         921
  C:940AH         LINE#         922
  C:940DH         LINE#         924
  C:9414H         LINE#         925
  C:9433H         LINE#         926
  C:944EH         LINE#         927
  C:9451H         LINE#         929
  C:9458H         LINE#         930
BL51 BANKED LINKER/LOCATER V6.22                                                      08/26/2015  16:38:21  PAGE 155


  C:9477H         LINE#         931
  C:9496H         LINE#         932
  C:9499H         LINE#         935
  C:94AAH         LINE#         937
  C:94B8H         LINE#         938
  C:94B8H         LINE#         939
  C:94CAH         LINE#         941
  -------         ENDPROC       APP_DEMO_WAVEFORM
  -------         PROC          APP_DEMO_SCROLLING_TEXT
  -------         DO            
  X:0213H         SYMBOL        i
  -------         ENDDO         
  C:9A47H         LINE#         946
  C:9A47H         LINE#         947
  C:9A47H         LINE#         952
  C:9A4AH         LINE#         953
  C:9A4AH         LINE#         954
  C:9A4AH         LINE#         955
  C:9A4DH         LINE#         957
  C:9A51H         LINE#         958
  C:9A51H         LINE#         959
  C:9A51H         LINE#         960
  C:9A54H         LINE#         962
  C:9A54H         LINE#         963
  C:9A57H         LINE#         964
  C:9A59H         LINE#         965
  C:9A5CH         LINE#         967
  C:9A5FH         LINE#         968
  C:9A69H         LINE#         969
  C:9A6BH         LINE#         970
  C:9A6EH         LINE#         975
  C:9A6EH         LINE#         976
  C:9A71H         LINE#         977
  C:9A74H         LINE#         978
  C:9A77H         LINE#         979
  C:9A7AH         LINE#         980
  C:9A83H         LINE#         981
  C:9A8AH         LINE#         982
  C:9A8BH         LINE#         983
  C:9A8EH         LINE#         984
  C:9A93H         LINE#         985
  C:9A9CH         LINE#         990
  C:9A9FH         LINE#         991
  C:9AA2H         LINE#         992
  C:9AA5H         LINE#         993
  C:9AA8H         LINE#         996
  C:9AABH         LINE#         999
  C:9AAEH         LINE#         1003
  C:9AB1H         LINE#         1007
  C:9AB6H         LINE#         1010
  C:9ABEH         LINE#         1011
  C:9AC2H         LINE#         1012
  C:9AC5H         LINE#         1013
  C:9AC8H         LINE#         1014
  C:9ACBH         LINE#         1015
  C:9ACEH         LINE#         1019
  C:9AD1H         LINE#         1020
BL51 BANKED LINKER/LOCATER V6.22                                                      08/26/2015  16:38:21  PAGE 156


  C:9AD1H         LINE#         1021
  C:9AD1H         LINE#         1022
  C:9AD4H         LINE#         1029
  C:9AD7H         LINE#         1030
  C:9AD7H         LINE#         1031
  C:9ADAH         LINE#         1032
  C:9ADAH         LINE#         1033
  C:9ADAH         LINE#         1035
  C:9ADDH         LINE#         1036
  C:9AE2H         LINE#         1037
  C:9AE5H         LINE#         1038
  C:9AE8H         LINE#         1042
  C:9AF0H         LINE#         1043
  C:9AF0H         LINE#         1044
  C:9AF0H         LINE#         1045
  C:9AF3H         LINE#         1047
  C:9AF7H         LINE#         1048
  C:9AF7H         LINE#         1049
  C:9AF7H         LINE#         1050
  C:9AFAH         LINE#         1052
  C:9B01H         LINE#         1053
  C:9B08H         LINE#         1054
  C:9B0BH         LINE#         1055
  C:9B0EH         LINE#         1056
  C:9B11H         LINE#         1057
  C:9B14H         LINE#         1059
  C:9B1BH         LINE#         1060
  C:9B22H         LINE#         1061
  C:9B24H         LINE#         1062
  C:9B27H         LINE#         1063
  C:9B2EH         LINE#         1064
  C:9B35H         LINE#         1065
  C:9B37H         LINE#         1066
  C:9B3AH         LINE#         1067
  C:9B41H         LINE#         1068
  C:9B48H         LINE#         1069
  C:9B4AH         LINE#         1070
  C:9B4DH         LINE#         1076
  C:9B66H         LINE#         1077
  C:9B66H         LINE#         1078
  C:9B6EH         LINE#         1079
  C:9B6EH         LINE#         1080
  C:9B6EH         LINE#         1081
  C:9B71H         LINE#         1083
  C:9B71H         LINE#         1084
  C:9B74H         LINE#         1085
  C:9B76H         LINE#         1086
  C:9B79H         LINE#         1088
  C:9B83H         LINE#         1089
  C:9B8AH         LINE#         1090
  C:9B8DH         LINE#         1091
  C:9B90H         LINE#         1092
  C:9B93H         LINE#         1093
  C:9B96H         LINE#         1097
  C:9B9AH         LINE#         1098
  C:9B9AH         LINE#         1099
  C:9B9DH         LINE#         1107
BL51 BANKED LINKER/LOCATER V6.22                                                      08/26/2015  16:38:21  PAGE 157


  C:9BA1H         LINE#         1108
  C:9BA4H         LINE#         1109
  C:9BBCH         LINE#         1110
  C:9BC9H         LINE#         1112
  C:9BD0H         LINE#         1114
  C:9BD5H         LINE#         1115
  C:9BDAH         LINE#         1116
  C:9BDDH         LINE#         1117
  C:9BE0H         LINE#         1127
  C:9BE0H         LINE#         1128
  C:9BE0H         LINE#         1129
  C:9BE0H         LINE#         1132
  C:9BE0H         LINE#         1133
  C:9BE3H         LINE#         1134
  C:9BE3H         LINE#         1135
  C:9BE3H         LINE#         1137
  C:9BE6H         LINE#         1138
  C:9BEBH         LINE#         1139
  C:9BEEH         LINE#         1140
  C:9BF1H         LINE#         1141
  C:9C02H         LINE#         1143
  C:9C1BH         LINE#         1144
  C:9C1BH         LINE#         1145
  C:9C23H         LINE#         1146
  C:9C23H         LINE#         1147
  C:9C23H         LINE#         1148
  C:9C26H         LINE#         1150
  C:9C26H         LINE#         1151
  C:9C29H         LINE#         1152
  C:9C2BH         LINE#         1153
  C:9C2EH         LINE#         1155
  C:9C38H         LINE#         1156
  C:9C3FH         LINE#         1157
  C:9C42H         LINE#         1158
  C:9C4DH         LINE#         1159
  C:9C50H         LINE#         1160
  C:9C53H         LINE#         1164
  C:9C5EH         LINE#         1165
  C:9C65H         LINE#         1166
  C:9C73H         LINE#         1174
  C:9C79H         LINE#         1175
  C:9C7CH         LINE#         1176
  C:9C86H         LINE#         1177
  C:9C9CH         LINE#         1179
  C:9CA3H         LINE#         1181
  C:9CA8H         LINE#         1182
  C:9CADH         LINE#         1183
  C:9CB0H         LINE#         1184
  C:9CB3H         LINE#         1194
  C:9CB3H         LINE#         1195
  C:9CB3H         LINE#         1196
  C:9CB3H         LINE#         1199
  C:9CB3H         LINE#         1200
  C:9CB6H         LINE#         1201
  C:9CB6H         LINE#         1202
  C:9CB6H         LINE#         1204
  C:9CB9H         LINE#         1205
BL51 BANKED LINKER/LOCATER V6.22                                                      08/26/2015  16:38:21  PAGE 158


  C:9CBEH         LINE#         1206
  C:9CC1H         LINE#         1207
  C:9CC4H         LINE#         1208
  C:9CD5H         LINE#         1210
  -------         ENDPROC       APP_DEMO_SCROLLING_TEXT
  -------         PROC          APP_DEMO_MULTI_FRAME_BUFFER
  -------         DO            
  X:0213H         SYMBOL        i
  X:0215H         SYMBOL        j
  X:0217H         SYMBOL        im
  -------         ENDDO         
  C:87C8H         LINE#         1216
  C:87C8H         LINE#         1217
  C:87C8H         LINE#         1218
  C:87D2H         LINE#         1219
  C:87D5H         LINE#         1220
  C:87D5H         LINE#         1221
  C:87D5H         LINE#         1222
  C:87D8H         LINE#         1225
  C:87DBH         LINE#         1226
  C:87DEH         LINE#         1227
  C:87E1H         LINE#         1228
  C:87E4H         LINE#         1231
  C:87E7H         LINE#         1234
  C:87EAH         LINE#         1238
  C:87EDH         LINE#         1242
  C:87F2H         LINE#         1244
  C:87F7H         LINE#         1245
  C:87F7H         LINE#         1246
  C:87FAH         LINE#         1249
  C:8801H         LINE#         1250
  C:8801H         LINE#         1252
  C:8830H         LINE#         1253
  C:8830H         LINE#         1254
  C:8830H         LINE#         1255
  C:8833H         LINE#         1257
  C:8833H         LINE#         1258
  C:8836H         LINE#         1259
  C:8841H         LINE#         1260
  C:8844H         LINE#         1262
  C:8847H         LINE#         1263
  C:8851H         LINE#         1264
  C:8853H         LINE#         1265
  C:8856H         LINE#         1268
  C:8856H         LINE#         1269
  C:8859H         LINE#         1270
  C:885CH         LINE#         1271
  C:885FH         LINE#         1272
  C:8862H         LINE#         1273
  C:886BH         LINE#         1279
  C:8897H         LINE#         1280
  C:889AH         LINE#         1281
  C:889DH         LINE#         1283
  C:88A4H         LINE#         1284
  C:88A4H         LINE#         1285
  C:88A7H         LINE#         1286
  C:88D7H         LINE#         1287
BL51 BANKED LINKER/LOCATER V6.22                                                      08/26/2015  16:38:21  PAGE 159


  C:88F7H         LINE#         1292
  C:88FAH         LINE#         1293
  C:88FDH         LINE#         1294
  C:8901H         LINE#         1295
  C:8904H         LINE#         1296
  C:890DH         LINE#         1297
  C:8911H         LINE#         1298
  C:8914H         LINE#         1299
  C:891FH         LINE#         1301
  C:8946H         LINE#         1302
  C:8946H         LINE#         1303
  C:8951H         LINE#         1305
  C:8957H         LINE#         1306
  C:8974H         LINE#         1307
  C:8998H         LINE#         1308
  C:899BH         LINE#         1310
  C:899EH         LINE#         1311
  C:89BCH         LINE#         1312
  C:89E2H         LINE#         1313
  C:89E5H         LINE#         1316
  C:8A0AH         LINE#         1317
  C:8A11H         LINE#         1318
  C:8A14H         LINE#         1319
  C:8A17H         LINE#         1322
  C:8A17H         LINE#         1323
  C:8A1AH         LINE#         1324
  C:8A1DH         LINE#         1325
  C:8A20H         LINE#         1326
  C:8A32H         LINE#         1327
  C:8A3BH         LINE#         1329
  C:8A5DH         LINE#         1332
  C:8A64H         LINE#         1333
  C:8A64H         LINE#         1334
  C:8A79H         LINE#         1335
  C:8A79H         LINE#         1336
  C:8A90H         LINE#         1337
  C:8A97H         LINE#         1338
  C:8AA7H         LINE#         1339
  C:8AAEH         LINE#         1340
  C:8ACBH         LINE#         1342
  C:8AD4H         LINE#         1343
  C:8AD4H         LINE#         1344
  C:8AE9H         LINE#         1345
  C:8AE9H         LINE#         1346
  C:8AFFH         LINE#         1347
  C:8B06H         LINE#         1348
  C:8B16H         LINE#         1350
  C:8B31H         LINE#         1352
  C:8B38H         LINE#         1354
  -------         ENDPROC       APP_DEMO_MULTI_FRAME_BUFFER
  -------         PROC          APP_DEMO_SLIDE_FRAME_BUFFER
  -------         DO            
  X:0213H         SYMBOL        im
  X:0217H         SYMBOL        i
  X:0219H         SYMBOL        j
  -------         ENDDO         
  C:A52DH         LINE#         1359
BL51 BANKED LINKER/LOCATER V6.22                                                      08/26/2015  16:38:21  PAGE 160


  C:A52DH         LINE#         1360
  C:A537H         LINE#         1363
  C:A53AH         LINE#         1364
  C:A53AH         LINE#         1365
  C:A53AH         LINE#         1366
  C:A53DH         LINE#         1369
  C:A540H         LINE#         1370
  C:A543H         LINE#         1371
  C:A546H         LINE#         1372
  C:A549H         LINE#         1375
  C:A54CH         LINE#         1378
  C:A54FH         LINE#         1382
  C:A552H         LINE#         1386
  C:A557H         LINE#         1388
  C:A55DH         LINE#         1389
  C:A565H         LINE#         1390
  C:A568H         LINE#         1396
  C:A56BH         LINE#         1397
  C:A56EH         LINE#         1398
  C:A570H         LINE#         1399
  C:A573H         LINE#         1400
  C:A57CH         LINE#         1401
  C:A57EH         LINE#         1402
  C:A581H         LINE#         1403
  C:A58CH         LINE#         1405
  C:A590H         LINE#         1407
  C:A590H         LINE#         1408
  C:A593H         LINE#         1409
  C:A599H         LINE#         1410
  C:A59CH         LINE#         1412
  C:A59FH         LINE#         1413
  C:A5A6H         LINE#         1414
  C:A5A9H         LINE#         1415
  C:A5ACH         LINE#         1417
  C:A5B5H         LINE#         1418
  C:A5BEH         LINE#         1419
  C:A5C1H         LINE#         1420
  C:A5C4H         LINE#         1422
  C:A5CEH         LINE#         1423
  C:A5D1H         LINE#         1424
  C:A5D4H         LINE#         1425
  C:A5D7H         LINE#         1427
  C:A5E2H         LINE#         1428
  C:A5EDH         LINE#         1429
  C:A5F0H         LINE#         1430
  C:A5F3H         LINE#         1433
  C:A5F3H         LINE#         1434
  C:A5F6H         LINE#         1435
  C:A5F9H         LINE#         1436
  C:A5FCH         LINE#         1437
  C:A5FFH         LINE#         1438
  C:A608H         LINE#         1443
  C:A61FH         LINE#         1444
  C:A61FH         LINE#         1445
  C:A625H         LINE#         1446
  C:A62CH         LINE#         1447
  C:A63CH         LINE#         1448
BL51 BANKED LINKER/LOCATER V6.22                                                      08/26/2015  16:38:21  PAGE 161


  C:A643H         LINE#         1450
  C:A65AH         LINE#         1451
  C:A65AH         LINE#         1452
  C:A661H         LINE#         1453
  C:A668H         LINE#         1454
  C:A678H         LINE#         1455
  C:A67FH         LINE#         1458
  C:A698H         LINE#         1459
  C:A698H         LINE#         1460
  C:A69FH         LINE#         1461
  C:A6A6H         LINE#         1462
  C:A6B6H         LINE#         1463
  C:A6C0H         LINE#         1464
  C:A6C7H         LINE#         1465
  C:A6CEH         LINE#         1467
  C:A6E8H         LINE#         1468
  C:A6E8H         LINE#         1469
  C:A6EEH         LINE#         1470
  C:A6F5H         LINE#         1471
  C:A705H         LINE#         1472
  C:A708H         LINE#         1473
  C:A70FH         LINE#         1474
  C:A716H         LINE#         1476
  -------         ENDPROC       APP_DEMO_SLIDE_FRAME_BUFFER
  -------         PROC          APP_DEMO_ALPHA_BLENDING
  -------         DO            
  X:0213H         SYMBOL        im
  X:0217H         SYMBOL        i
  X:0219H         SYMBOL        j
  -------         ENDDO         
  C:A32DH         LINE#         1480
  C:A32DH         LINE#         1481
  C:A337H         LINE#         1484
  C:A33AH         LINE#         1485
  C:A33AH         LINE#         1486
  C:A33AH         LINE#         1487
  C:A33AH         LINE#         1489
  C:A33AH         LINE#         1490
  C:A33AH         LINE#         1491
  C:A33AH         LINE#         1492
  C:A33DH         LINE#         1494
  C:A33DH         LINE#         1495
  C:A340H         LINE#         1496
  C:A342H         LINE#         1497
  C:A345H         LINE#         1499
  C:A348H         LINE#         1500
  C:A352H         LINE#         1501
  C:A354H         LINE#         1502
  C:A357H         LINE#         1505
  C:A357H         LINE#         1506
  C:A35AH         LINE#         1507
  C:A35DH         LINE#         1508
  C:A360H         LINE#         1509
  C:A363H         LINE#         1510
  C:A36CH         LINE#         1511
  C:A373H         LINE#         1512
  C:A374H         LINE#         1513
BL51 BANKED LINKER/LOCATER V6.22                                                      08/26/2015  16:38:21  PAGE 162


  C:A377H         LINE#         1514
  C:A37CH         LINE#         1515
  C:A385H         LINE#         1518
  C:A388H         LINE#         1519
  C:A38BH         LINE#         1520
  C:A38EH         LINE#         1521
  C:A391H         LINE#         1524
  C:A394H         LINE#         1527
  C:A397H         LINE#         1531
  C:A39AH         LINE#         1535
  C:A39FH         LINE#         1539
  C:A3A8H         LINE#         1540
  C:A3A8H         LINE#         1541
  C:A3A8H         LINE#         1542
  C:A3A8H         LINE#         1543
  C:A3ABH         LINE#         1546
  C:A3AFH         LINE#         1547
  C:A3AFH         LINE#         1548
  C:A3B2H         LINE#         1549
  C:A3B5H         LINE#         1550
  C:A3B8H         LINE#         1551
  C:A3BBH         LINE#         1555
  C:A3C6H         LINE#         1556
  C:A3C6H         LINE#         1557
  C:A3C6H         LINE#         1558
  C:A3C6H         LINE#         1559
  C:A3C9H         LINE#         1562
  C:A3D1H         LINE#         1563
  C:A3D1H         LINE#         1564
  C:A3D4H         LINE#         1565
  C:A3DFH         LINE#         1566
  C:A3E2H         LINE#         1567
  C:A3E5H         LINE#         1570
  C:A3E8H         LINE#         1571
  C:A3F0H         LINE#         1572
  C:A3F3H         LINE#         1573
  C:A3FBH         LINE#         1574
  C:A406H         LINE#         1576
  C:A409H         LINE#         1577
  C:A409H         LINE#         1578
  C:A409H         LINE#         1579
  C:A40CH         LINE#         1581
  C:A40FH         LINE#         1582
  C:A413H         LINE#         1583
  C:A416H         LINE#         1584
  C:A419H         LINE#         1587
  C:A41EH         LINE#         1588
  C:A423H         LINE#         1590
  C:A43CH         LINE#         1591
  C:A43CH         LINE#         1593
  C:A43FH         LINE#         1594
  C:A447H         LINE#         1595
  C:A447H         LINE#         1596
  C:A44AH         LINE#         1597
  C:A46EH         LINE#         1598
  C:A471H         LINE#         1599
  C:A474H         LINE#         1601
BL51 BANKED LINKER/LOCATER V6.22                                                      08/26/2015  16:38:21  PAGE 163


  C:A47FH         LINE#         1602
  C:A4A9H         LINE#         1603
  C:A4ACH         LINE#         1604
  C:A4AFH         LINE#         1606
  C:A4C6H         LINE#         1607
  C:A4C6H         LINE#         1608
  C:A4C9H         LINE#         1609
  C:A4CCH         LINE#         1610
  C:A4D3H         LINE#         1611
  C:A4E3H         LINE#         1613
  C:A4FCH         LINE#         1614
  C:A4FCH         LINE#         1615
  C:A4FFH         LINE#         1616
  C:A502H         LINE#         1617
  C:A509H         LINE#         1618
  C:A519H         LINE#         1619
  C:A52AH         LINE#         1621
  -------         ENDPROC       APP_DEMO_ALPHA_BLENDING
  -------         PROC          MONO_DEMO
  C:C1A4H         LINE#         1625
  C:C1A4H         LINE#         1626
  C:C1A4H         LINE#         1628
  C:C1A7H         LINE#         1629
  C:C1A7H         LINE#         1630
  C:C1A7H         LINE#         1631
  C:C1A7H         LINE#         1633
  C:C1A7H         LINE#         1634
  C:C1A7H         LINE#         1635
  C:C1A7H         LINE#         1636
  C:C1AAH         LINE#         1643
  C:C1AEH         LINE#         1644
  C:C1AEH         LINE#         1645
  C:C1AEH         LINE#         1646
  C:C1B1H         LINE#         1647
  C:C1B4H         LINE#         1648
  C:C1B8H         LINE#         1649
  C:C1B8H         LINE#         1650
  C:C1B8H         LINE#         1651
  C:C1BBH         LINE#         1652
  C:C1BEH         LINE#         1653
  C:C1C2H         LINE#         1654
  C:C1C2H         LINE#         1655
  C:C1C2H         LINE#         1656
  C:C1C5H         LINE#         1657
  C:C1C8H         LINE#         1658
  C:C1CCH         LINE#         1659
  C:C1CCH         LINE#         1660
  C:C1CCH         LINE#         1661
  C:C1CFH         LINE#         1662
  C:C1D2H         LINE#         1663
  C:C1D6H         LINE#         1664
  C:C1D6H         LINE#         1665
  C:C1D6H         LINE#         1666
  C:C1D9H         LINE#         1667
  C:C1DCH         LINE#         1668
  C:C1E0H         LINE#         1669
  C:C1E0H         LINE#         1670
BL51 BANKED LINKER/LOCATER V6.22                                                      08/26/2015  16:38:21  PAGE 164


  C:C1E0H         LINE#         1671
  C:C1E3H         LINE#         1672
  C:C1E6H         LINE#         1673
  C:C1E8H         LINE#         1674
  C:C1E8H         LINE#         1675
  C:C1E8H         LINE#         1676
  C:C1EBH         LINE#         1677
  C:C1EEH         LINE#         1678
  C:C1EEH         LINE#         1679
  C:C1EEH         LINE#         1680
  C:C1EEH         LINE#         1681
  C:C1F1H         LINE#         1682
  -------         ENDPROC       MONO_DEMO
  -------         PROC          TEXT_DEMO
  -------         DO            
  X:0213H         SYMBOL        i
  X:0215H         SYMBOL        j
  -------         ENDDO         
  C:8B3BH         LINE#         1686
  C:8B3BH         LINE#         1687
  C:8B3BH         LINE#         1689
  C:8B3EH         LINE#         1690
  C:8B3EH         LINE#         1691
  C:8B3EH         LINE#         1692
  C:8B3EH         LINE#         1694
  C:8B3EH         LINE#         1695
  C:8B3EH         LINE#         1696
  C:8B3EH         LINE#         1697
  C:8B41H         LINE#         1705
  C:8B43H         LINE#         1706
  C:8B46H         LINE#         1707
  C:8B48H         LINE#         1708
  C:8B4BH         LINE#         1710
  C:8B4EH         LINE#         1711
  C:8B58H         LINE#         1712
  C:8B5AH         LINE#         1713
  C:8B5DH         LINE#         1716
  C:8B7DH         LINE#         1717
  C:8B7DH         LINE#         1718
  C:8B80H         LINE#         1719
  C:8B83H         LINE#         1720
  C:8B86H         LINE#         1721
  C:8B90H         LINE#         1722
  C:8B99H         LINE#         1723
  C:8B9CH         LINE#         1724
  C:8BA3H         LINE#         1725
  C:8BADH         LINE#         1726
  C:8BB6H         LINE#         1728
  C:8BB9H         LINE#         1731
  C:8BBBH         LINE#         1732
  C:8BBBH         LINE#         1733
  C:8BBBH         LINE#         1734
  C:8BBEH         LINE#         1737
  C:8BBFH         LINE#         1738
  C:8BBFH         LINE#         1739
  C:8BC2H         LINE#         1740
  C:8BC5H         LINE#         1741
BL51 BANKED LINKER/LOCATER V6.22                                                      08/26/2015  16:38:21  PAGE 165


  C:8BCFH         LINE#         1742
  C:8BD8H         LINE#         1744
  C:8BDBH         LINE#         1745
  C:8BE3H         LINE#         1746
  C:8BECH         LINE#         1748
  C:8BEFH         LINE#         1749
  C:8BF7H         LINE#         1750
  C:8C00H         LINE#         1766
  C:8C03H         LINE#         1767
  C:8C06H         LINE#         1768
  C:8C09H         LINE#         1769
  C:8C11H         LINE#         1770
  C:8C1AH         LINE#         1771
  C:8C22H         LINE#         1772
  C:8C2BH         LINE#         1781
  C:8C2EH         LINE#         1785
  C:8C31H         LINE#         1794
  C:8C34H         LINE#         1795
  C:8C37H         LINE#         1796
  C:8C3AH         LINE#         1797
  C:8C3DH         LINE#         1798
  C:8C40H         LINE#         1799
  C:8C43H         LINE#         1800
  C:8C46H         LINE#         1801
  C:8C49H         LINE#         1802
  C:8C4CH         LINE#         1803
  C:8C4FH         LINE#         1804
  C:8C54H         LINE#         1806
  C:8C57H         LINE#         1808
  C:8C5EH         LINE#         1809
  C:8C65H         LINE#         1811
  C:8C6AH         LINE#         1813
  C:8C74H         LINE#         1814
  C:8C7DH         LINE#         1815
  C:8C80H         LINE#         1816
  C:8C88H         LINE#         1817
  C:8C91H         LINE#         1818
  C:8C94H         LINE#         1819
  C:8C9CH         LINE#         1820
  C:8CA5H         LINE#         1823
  C:8CACH         LINE#         1824
  C:8CB3H         LINE#         1825
  C:8CB8H         LINE#         1826
  C:8CC2H         LINE#         1827
  C:8CCBH         LINE#         1828
  C:8CCEH         LINE#         1829
  C:8CD7H         LINE#         1830
  C:8CE0H         LINE#         1831
  C:8CE3H         LINE#         1832
  C:8CEBH         LINE#         1833
  C:8CF4H         LINE#         1835
  C:8CF9H         LINE#         1838
  C:8CFFH         LINE#         1839
  C:8D02H         LINE#         1842
  C:8D0CH         LINE#         1843
  C:8D16H         LINE#         1844
  C:8D1FH         LINE#         1845
BL51 BANKED LINKER/LOCATER V6.22                                                      08/26/2015  16:38:21  PAGE 166


  C:8D2FH         LINE#         1846
  C:8D2FH         LINE#         1847
  C:8D32H         LINE#         1849
  C:8D3BH         LINE#         1850
  C:8D44H         LINE#         1851
  C:8D4CH         LINE#         1852
  C:8D55H         LINE#         1856
  C:8D58H         LINE#         1857
  C:8D5EH         LINE#         1858
  C:8D65H         LINE#         1860
  C:8D6FH         LINE#         1861
  C:8D78H         LINE#         1863
  C:8D80H         LINE#         1864
  C:8D89H         LINE#         1865
  C:8D8CH         LINE#         1866
  C:8D93H         LINE#         1868
  C:8D9AH         LINE#         1869
  C:8D9AH         LINE#         1870
  C:8DA1H         LINE#         1871
  C:8DBAH         LINE#         1872
  C:8DD4H         LINE#         1873
  C:8DDBH         LINE#         1875
  C:8DDEH         LINE#         1877
  C:8DE1H         LINE#         1878
  C:8DE4H         LINE#         1880
  C:8DEBH         LINE#         1881
  C:8DF5H         LINE#         1882
  C:8DFEH         LINE#         1884
  C:8DFEH         LINE#         1885
  C:8E01H         LINE#         1887
  C:8E04H         LINE#         1888
  C:8E07H         LINE#         1889
  C:8E0AH         LINE#         1890
  C:8E0AH         LINE#         1891
  C:8E0DH         LINE#         1892
  C:8E14H         LINE#         1893
  C:8E17H         LINE#         1894
  C:8E1EH         LINE#         1895
  C:8E21H         LINE#         1896
  C:8E21H         LINE#         1897
  C:8E24H         LINE#         1899
  C:8E2BH         LINE#         1900
  C:8E2BH         LINE#         1901
  C:8E40H         LINE#         1902
  C:8E40H         LINE#         1903
  C:8E5CH         LINE#         1904
  C:8E63H         LINE#         1905
  C:8E73H         LINE#         1906
  C:8E90H         LINE#         1907
  C:8E93H         LINE#         1909
  C:8E9AH         LINE#         1910
  C:8E9DH         LINE#         1912
  -------         ENDPROC       TEXT_DEMO
  -------         PROC          DMA_DEMO
  -------         DO            
  X:0213H         SYMBOL        i
  -------         ENDDO         
BL51 BANKED LINKER/LOCATER V6.22                                                      08/26/2015  16:38:21  PAGE 167


  C:B2DFH         LINE#         1918
  C:B2DFH         LINE#         1919
  C:B2DFH         LINE#         1924
  C:B2E2H         LINE#         1925
  C:B2E2H         LINE#         1926
  C:B2E2H         LINE#         1927
  C:B2E2H         LINE#         1929
  C:B2E2H         LINE#         1930
  C:B2E2H         LINE#         1931
  C:B2E2H         LINE#         1932
  C:B2E5H         LINE#         1934
  C:B2E7H         LINE#         1935
  C:B2EAH         LINE#         1936
  C:B2ECH         LINE#         1937
  C:B2EFH         LINE#         1939
  C:B2F2H         LINE#         1940
  C:B2FCH         LINE#         1941
  C:B2FEH         LINE#         1942
  C:B301H         LINE#         1950
  C:B301H         LINE#         1951
  C:B304H         LINE#         1952
  C:B307H         LINE#         1953
  C:B30AH         LINE#         1954
  C:B30DH         LINE#         1955
  C:B316H         LINE#         1956
  C:B316H         LINE#         1957
  C:B316H         LINE#         1958
  C:B319H         LINE#         1959
  C:B31EH         LINE#         1960
  C:B327H         LINE#         1963
  C:B32AH         LINE#         1964
  C:B32DH         LINE#         1965
  C:B330H         LINE#         1966
  C:B333H         LINE#         1969
  C:B336H         LINE#         1972
  C:B339H         LINE#         1976
  C:B33CH         LINE#         1980
  C:B341H         LINE#         2014
  C:B344H         LINE#         2015
  C:B34CH         LINE#         2016
  C:B34FH         LINE#         2019
  C:B373H         LINE#         2020
  C:B373H         LINE#         2021
  C:B384H         LINE#         2022
  C:B387H         LINE#         2023
  C:B38AH         LINE#         2024
  C:B391H         LINE#         2025
  C:B394H         LINE#         2026
  C:B3B5H         LINE#         2027
  -------         ENDPROC       DMA_DEMO
  -------         PROC          GEOMETRIC
  -------         DO            
  X:0213H         SYMBOL        i
  -------         ENDDO         
  C:8EA0H         LINE#         2029
  C:8EA0H         LINE#         2030
  C:8EA0H         LINE#         2031
BL51 BANKED LINKER/LOCATER V6.22                                                      08/26/2015  16:38:21  PAGE 168


  C:8EA3H         LINE#         2032
  C:8EA3H         LINE#         2033
  C:8EA3H         LINE#         2034
  C:8EA3H         LINE#         2036
  C:8EA3H         LINE#         2037
  C:8EA3H         LINE#         2038
  C:8EA3H         LINE#         2039
  C:8EA6H         LINE#         2045
  C:8EA6H         LINE#         2046
  C:8EA6H         LINE#         2047
  C:8EA6H         LINE#         2048
  C:8EA9H         LINE#         2050
  C:8EBFH         LINE#         2051
  C:8EC3H         LINE#         2052
  C:8EC3H         LINE#         2053
  C:8EC3H         LINE#         2054
  C:8EC6H         LINE#         2055
  C:8ECDH         LINE#         2056
  C:8EDDH         LINE#         2058
  C:8EF3H         LINE#         2059
  C:8EF6H         LINE#         2060
  C:8EF6H         LINE#         2061
  C:8EF6H         LINE#         2062
  C:8EF9H         LINE#         2063
  C:8F00H         LINE#         2064
  C:8F10H         LINE#         2065
  C:8F10H         LINE#         2067
  C:8F10H         LINE#         2068
  C:8F10H         LINE#         2069
  C:8F10H         LINE#         2070
  C:8F13H         LINE#         2072
  C:8F29H         LINE#         2073
  C:8F2DH         LINE#         2074
  C:8F2DH         LINE#         2075
  C:8F2DH         LINE#         2076
  C:8F2DH         LINE#         2077
  C:8F30H         LINE#         2078
  C:8F37H         LINE#         2079
  C:8F47H         LINE#         2081
  C:8F5DH         LINE#         2082
  C:8F60H         LINE#         2083
  C:8F60H         LINE#         2084
  C:8F60H         LINE#         2085
  C:8F60H         LINE#         2086
  C:8F63H         LINE#         2087
  C:8F6AH         LINE#         2088
  C:8F7AH         LINE#         2089
  C:8F7AH         LINE#         2092
  C:8F7AH         LINE#         2093
  C:8F7AH         LINE#         2094
  C:8F7AH         LINE#         2095
  C:8F7DH         LINE#         2097
  C:8F93H         LINE#         2098
  C:8F97H         LINE#         2099
  C:8F9AH         LINE#         2100
  C:8FA2H         LINE#         2101
  C:8FA5H         LINE#         2102
BL51 BANKED LINKER/LOCATER V6.22                                                      08/26/2015  16:38:21  PAGE 169


  C:8FACH         LINE#         2103
  C:8FBCH         LINE#         2105
  C:8FD2H         LINE#         2106
  C:8FD2H         LINE#         2107
  C:8FD5H         LINE#         2108
  C:8FDDH         LINE#         2109
  C:8FE0H         LINE#         2110
  C:8FE7H         LINE#         2111
  C:8FF7H         LINE#         2112
  C:8FF7H         LINE#         2115
  C:8FF7H         LINE#         2116
  C:8FF7H         LINE#         2117
  C:8FF7H         LINE#         2118
  C:8FFAH         LINE#         2120
  C:9010H         LINE#         2121
  C:9012H         LINE#         2122
  C:9015H         LINE#         2123
  C:9015H         LINE#         2124
  C:9018H         LINE#         2125
  C:901FH         LINE#         2126
  C:902FH         LINE#         2128
  C:9045H         LINE#         2129
  C:9045H         LINE#         2130
  C:9048H         LINE#         2131
  C:9048H         LINE#         2132
  C:904BH         LINE#         2133
  C:9052H         LINE#         2134
  C:9062H         LINE#         2135
  C:9062H         LINE#         2138
  C:9062H         LINE#         2139
  C:9062H         LINE#         2140
  C:9062H         LINE#         2141
  C:9065H         LINE#         2143
  C:907BH         LINE#         2144
  C:907FH         LINE#         2145
  C:907FH         LINE#         2146
  C:907FH         LINE#         2147
  C:907FH         LINE#         2148
  C:9082H         LINE#         2149
  C:9089H         LINE#         2150
  C:9099H         LINE#         2152
  C:90AFH         LINE#         2153
  C:90B2H         LINE#         2154
  C:90B2H         LINE#         2155
  C:90B2H         LINE#         2156
  C:90B2H         LINE#         2157
  C:90B5H         LINE#         2158
  C:90BCH         LINE#         2159
  C:90CCH         LINE#         2160
  C:90CCH         LINE#         2164
  C:90CCH         LINE#         2165
  C:90CCH         LINE#         2166
  C:90CCH         LINE#         2167
  C:90CFH         LINE#         2169
  C:90E5H         LINE#         2170
  C:90ECH         LINE#         2171
  C:90F7H         LINE#         2172
BL51 BANKED LINKER/LOCATER V6.22                                                      08/26/2015  16:38:21  PAGE 170


  C:910FH         LINE#         2173
  C:9112H         LINE#         2174
  C:9115H         LINE#         2175
  C:9125H         LINE#         2176
  C:913BH         LINE#         2177
  C:913FH         LINE#         2178
  C:913FH         LINE#         2179
  C:913FH         LINE#         2180
  C:9142H         LINE#         2181
  C:9145H         LINE#         2182
  C:9155H         LINE#         2185
  C:916BH         LINE#         2186
  C:9171H         LINE#         2187
  C:917CH         LINE#         2188
  C:9194H         LINE#         2189
  C:9197H         LINE#         2190
  C:919EH         LINE#         2191
  C:91AEH         LINE#         2192
  C:91C4H         LINE#         2193
  C:91C7H         LINE#         2194
  C:91C7H         LINE#         2195
  C:91C7H         LINE#         2196
  C:91CAH         LINE#         2197
  C:91D1H         LINE#         2198
  C:91E1H         LINE#         2200
  -------         ENDPROC       GEOMETRIC
  -------         PROC          GRAY
  -------         DO            
  X:0213H         SYMBOL        i
  X:0215H         SYMBOL        col
  X:0217H         SYMBOL        line
  -------         ENDDO         
  C:9F0BH         LINE#         2205
  C:9F0BH         LINE#         2206
  C:9F0BH         LINE#         2207
  C:9F0EH         LINE#         2208
  C:9F0EH         LINE#         2209
  C:9F0EH         LINE#         2210
  C:9F0EH         LINE#         2212
  C:9F0EH         LINE#         2213
  C:9F0EH         LINE#         2214
  C:9F0EH         LINE#         2215
  C:9F11H         LINE#         2218
  C:9F1CH         LINE#         2219
  C:9F34H         LINE#         2220
  C:9F34H         LINE#         2221
  C:9F34H         LINE#         2222
  C:9F37H         LINE#         2223
  C:9F3AH         LINE#         2224
  C:9F48H         LINE#         2225
  C:9F58H         LINE#         2226
  C:9F65H         LINE#         2227
  C:9F7EH         LINE#         2228
  C:9F7EH         LINE#         2229
  C:9F7EH         LINE#         2230
  C:9F81H         LINE#         2231
  C:9F84H         LINE#         2232
BL51 BANKED LINKER/LOCATER V6.22                                                      08/26/2015  16:38:21  PAGE 171


  C:9F92H         LINE#         2233
  C:9FA2H         LINE#         2235
  C:9FAFH         LINE#         2236
  C:9FC8H         LINE#         2237
  C:9FD6H         LINE#         2238
  C:9FE7H         LINE#         2239
  C:9FF0H         LINE#         2240
  C:9FF3H         LINE#         2241
  C:A001H         LINE#         2242
  C:A011H         LINE#         2243
  C:A01FH         LINE#         2244
  C:A038H         LINE#         2245
  C:A046H         LINE#         2246
  C:A057H         LINE#         2247
  C:A060H         LINE#         2248
  C:A063H         LINE#         2249
  C:A071H         LINE#         2250
  C:A081H         LINE#         2253
  C:A08FH         LINE#         2254
  C:A0A8H         LINE#         2255
  C:A0A8H         LINE#         2256
  C:A0A8H         LINE#         2257
  C:A0ABH         LINE#         2258
  C:A0AEH         LINE#         2259
  C:A0BCH         LINE#         2260
  C:A0CCH         LINE#         2261
  C:A0DAH         LINE#         2262
  C:A0F3H         LINE#         2263
  C:A0F3H         LINE#         2264
  C:A0F3H         LINE#         2265
  C:A0F6H         LINE#         2266
  C:A0F9H         LINE#         2267
  C:A107H         LINE#         2268
  C:A117H         LINE#         2271
  C:A11EH         LINE#         2272
  -------         ENDPROC       GRAY
  -------         PROC          L?1150
  -------         ENDPROC       L?1150
  -------         PROC          _SDWRITE
  D:0007H         SYMBOL        n
  -------         DO            
  D:0006H         SYMBOL        i
  -------         ENDDO         
  C:D0EEH         LINE#         14
  C:D0EEH         LINE#         15
  C:D0EEH         LINE#         19
  C:D0F0H         LINE#         20
  C:D0F0H         LINE#         21
  C:D0F2H         LINE#         22
  C:D0F6H         LINE#         23
  C:D0FAH         LINE#         24
  C:D0FCH         LINE#         25
  C:D0FEH         LINE#         26
  C:D100H         LINE#         27
  -------         ENDPROC       _SDWRITE
  -------         PROC          SDREAD
  -------         DO            
BL51 BANKED LINKER/LOCATER V6.22                                                      08/26/2015  16:38:21  PAGE 172


  D:0007H         SYMBOL        n
  D:0006H         SYMBOL        i
  -------         ENDDO         
  C:D886H         LINE#         30
  C:D886H         LINE#         31
  C:D886H         LINE#         33
  C:D888H         LINE#         34
  C:D888H         LINE#         35
  C:D88AH         LINE#         36
  C:D88CH         LINE#         37
  C:D890H         LINE#         38
  C:D896H         LINE#         40
  C:D898H         LINE#         41
  C:D898H         LINE#         42
  -------         ENDPROC       SDREAD
  -------         PROC          L?1154
  -------         ENDPROC       L?1154
  -------         PROC          SDRESPONSE
  -------         DO            
  D:0004H         SYMBOL        i
  D:0005H         SYMBOL        response
  -------         ENDDO         
  C:D104H         LINE#         45
  C:D104H         LINE#         46
  C:D104H         LINE#         47
  C:D106H         LINE#         49
  C:D106H         LINE#         50
  C:D106H         LINE#         51
  C:D10BH         LINE#         52
  C:D10EH         LINE#         53
  C:D10EH         LINE#         54
  C:D113H         LINE#         55
  C:D113H         LINE#         56
  C:D114H         LINE#         57
  C:D118H         LINE#         58
  C:D11AH         LINE#         59
  -------         ENDPROC       SDRESPONSE
  -------         PROC          _SDCOMMAND
  D:0007H         SYMBOL        command
  X:0226H         SYMBOL        argument
  X:022AH         SYMBOL        CRC
  C:CE5CH         LINE#         62
  C:CE5CH         LINE#         63
  C:CE5CH         LINE#         65
  C:CE63H         LINE#         66
  C:CE6BH         LINE#         67
  C:CE71H         LINE#         68
  C:CE77H         LINE#         69
  C:CE7DH         LINE#         70
  -------         ENDPROC       _SDCOMMAND
  -------         PROC          SDINIT
  -------         DO            
  X:021CH         SYMBOL        delay
  X:021EH         SYMBOL        trials
  D:0004H         SYMBOL        i
  D:0005H         SYMBOL        response
  -------         ENDDO         
BL51 BANKED LINKER/LOCATER V6.22                                                      08/26/2015  16:38:21  PAGE 173


  C:BBE2H         LINE#         74
  C:BBE2H         LINE#         75
  C:BBE2H         LINE#         76
  C:BBEDH         LINE#         78
  C:BBEFH         LINE#         80
  C:BBF1H         LINE#         81
  C:BBF2H         LINE#         82
  C:BBFCH         LINE#         83
  C:BBFEH         LINE#         86
  C:BC10H         LINE#         89
  C:BC15H         LINE#         91
  C:BC1AH         LINE#         92
  C:BC1AH         LINE#         93
  C:BC1DH         LINE#         94
  C:BC1DH         LINE#         96
  C:BC21H         LINE#         97
  C:BC21H         LINE#         98
  C:BC23H         LINE#         99
  C:BC28H         LINE#         100
  C:BC2AH         LINE#         101
  C:BC3CH         LINE#         102
  C:BC41H         LINE#         103
  C:BC43H         LINE#         105
  C:BC45H         LINE#         106
  C:BC4AH         LINE#         107
  C:BC4CH         LINE#         108
  -------         ENDPROC       SDINIT
  -------         PROC          _SDWRITEBLOCK
  X:026DH         SYMBOL        Block
  X:0270H         SYMBOL        address
  X:0274H         SYMBOL        len
  -------         DO            
  D:0004H         SYMBOL        count
  D:0005H         SYMBOL        dataResp
  -------         ENDDO         
  C:B6CAH         LINE#         111
  C:B6D9H         LINE#         112
  C:B6D9H         LINE#         118
  C:B6DBH         LINE#         120
  C:B6FAH         LINE#         122
  C:B700H         LINE#         123
  C:B700H         LINE#         124
  C:B700H         LINE#         125
  C:B703H         LINE#         126
  C:B708H         LINE#         129
  C:B70DH         LINE#         131
  C:B73BH         LINE#         133
  C:B74DH         LINE#         135
  C:B74DH         LINE#         136
  C:B750H         LINE#         138
  C:B755H         LINE#         143
  C:B75BH         LINE#         145
  C:B75FH         LINE#         146
  C:B761H         LINE#         147
  C:B766H         LINE#         148
  C:B76AH         LINE#         149
  C:B76AH         LINE#         151
BL51 BANKED LINKER/LOCATER V6.22                                                      08/26/2015  16:38:21  PAGE 174


  C:B76DH         LINE#         152
  C:B76DH         LINE#         153
  C:B771H         LINE#         154
  C:B774H         LINE#         157
  C:B777H         LINE#         158
  C:B777H         LINE#         160
  C:B779H         LINE#         161
  -------         ENDPROC       _SDWRITEBLOCK
  -------         PROC          _SDREADBLOCK
  X:021CH         SYMBOL        Block
  X:021FH         SYMBOL        address
  X:0223H         SYMBOL        len
  -------         DO            
  D:0004H         SYMBOL        count
  -------         ENDDO         
  C:B9EAH         LINE#         165
  C:B9F9H         LINE#         166
  C:B9F9H         LINE#         173
  C:B9FBH         LINE#         175
  C:BA1AH         LINE#         177
  C:BA20H         LINE#         178
  C:BA20H         LINE#         181
  C:BA26H         LINE#         183
  C:BA54H         LINE#         185
  C:BA64H         LINE#         188
  C:BA67H         LINE#         189
  C:BA6AH         LINE#         191
  C:BA6CH         LINE#         192
  C:BA6FH         LINE#         193
  C:BA72H         LINE#         194
  C:BA72H         LINE#         196
  C:BA74H         LINE#         197
  -------         ENDPROC       _SDREADBLOCK
  -------         PROC          DISPLAY_JPG_SDCARD
  -------         DO            
  X:0213H         SYMBOL        jn
  D:0004H         SYMBOL        in
  X:0217H         SYMBOL        AddTemp
  X:021BH         SYMBOL        mn
  -------         ENDDO         
  C:AD6DH         LINE#         200
  C:AD6DH         LINE#         201
  C:AD6DH         LINE#         204
  C:AD77H         LINE#         205
  C:AD7DH         LINE#         208
  C:AD80H         LINE#         209
  C:AD80H         LINE#         210
  C:AD80H         LINE#         211
  C:AD80H         LINE#         213
  C:AD80H         LINE#         214
  C:AD80H         LINE#         215
  C:AD80H         LINE#         216
  C:AD83H         LINE#         218
  C:AD87H         LINE#         219
  C:AD87H         LINE#         220
  C:AD87H         LINE#         221
  C:AD8AH         LINE#         224
BL51 BANKED LINKER/LOCATER V6.22                                                      08/26/2015  16:38:21  PAGE 175


  C:AD8DH         LINE#         225
  C:AD96H         LINE#         226
  C:AD96H         LINE#         227
  C:AD9EH         LINE#         230
  C:ADC6H         LINE#         231
  C:ADC6H         LINE#         232
  C:AE02H         LINE#         233
  C:AE05H         LINE#         234
  C:AE0EH         LINE#         235
  C:AE0EH         LINE#         236
  C:AE1FH         LINE#         237
  C:AE2EH         LINE#         238
  C:AE37H         LINE#         239
  C:AE3BH         LINE#         240
  C:AE5DH         LINE#         241
  C:AEA4H         LINE#         243
  C:AEA7H         LINE#         244
  C:AEB0H         LINE#         248
  -------         ENDPROC       DISPLAY_JPG_SDCARD
  C:CDB3H         SYMBOL        L?1158
  -------         PROC          L?1157
  -------         ENDPROC       L?1157
  C:CDB3H         SYMBOL        L?1158
  -------         PROC          _FAST_CLEAR
  X:023DH         SYMBOL        colour
  C:CDB7H         LINE#         38
  C:CDBFH         LINE#         39
  C:CDC2H         LINE#         40
  C:CDC2H         LINE#         41
  C:CDC2H         LINE#         42
  C:CDC2H         LINE#         44
  C:CDC2H         LINE#         45
  C:CDC2H         LINE#         46
  C:CDC2H         LINE#         47
  C:CDC5H         LINE#         49
  C:CDCDH         LINE#         50
  C:CDD0H         LINE#         51
  C:CDDBH         LINE#         52
  -------         ENDPROC       _FAST_CLEAR
  C:CC83H         SYMBOL        L?1133
  -------         PROC          L?1132
  -------         ENDPROC       L?1132
  C:CC83H         SYMBOL        L?1133
  -------         PROC          _LCD_DRAWPOINT
  D:0006H         SYMBOL        x1
  D:0004H         SYMBOL        y1
  D:0082H         SYMBOL        POINT_COLOR
  C:CC8CH         LINE#         59
  C:CC90H         LINE#         60
  C:CC90H         LINE#         61
  C:CC93H         LINE#         62
  C:CC96H         LINE#         63
  C:CC9DH         LINE#         64
  -------         ENDPROC       _LCD_DRAWPOINT
  -------         PROC          _LCD_DRAWLINE
  X:0243H         SYMBOL        x1
  D:0004H         SYMBOL        x2
BL51 BANKED LINKER/LOCATER V6.22                                                      08/26/2015  16:38:21  PAGE 176


  D:0002H         SYMBOL        y1
  X:0249H         SYMBOL        y2
  X:024BH         SYMBOL        POINT_COLOR
  -------         DO            
  X:024DH         SYMBOL        t
  X:024FH         SYMBOL        xerr
  X:0251H         SYMBOL        yerr
  X:0253H         SYMBOL        delta_x
  X:0255H         SYMBOL        delta_y
  X:0257H         SYMBOL        distance
  X:0259H         SYMBOL        incx
  X:025BH         SYMBOL        incy
  X:025DH         SYMBOL        uRow
  X:025FH         SYMBOL        uCol
  -------         ENDDO         
  C:A719H         LINE#         69
  C:A721H         LINE#         70
  C:A721H         LINE#         72
  C:A72CH         LINE#         75
  C:A741H         LINE#         76
  C:A754H         LINE#         77
  C:A763H         LINE#         78
  C:A76BH         LINE#         79
  C:A787H         LINE#         80
  C:A793H         LINE#         81
  C:A7A8H         LINE#         82
  C:A7C4H         LINE#         83
  C:A7D0H         LINE#         84
  C:A7E5H         LINE#         85
  C:A80BH         LINE#         86
  C:A810H         LINE#         87
  C:A835H         LINE#         88
  C:A835H         LINE#         90
  C:A84EH         LINE#         91
  C:A862H         LINE#         92
  C:A876H         LINE#         93
  C:A892H         LINE#         94
  C:A892H         LINE#         95
  C:A89EH         LINE#         96
  C:A8B2H         LINE#         97
  C:A8B2H         LINE#         98
  C:A8CEH         LINE#         99
  C:A8CEH         LINE#         100
  C:A8DAH         LINE#         101
  C:A8EEH         LINE#         102
  C:A8EEH         LINE#         103
  C:A8FFH         LINE#         104
  -------         ENDPROC       _LCD_DRAWLINE
  -------         PROC          _TP_WRITE_BYTE
  D:0007H         SYMBOL        num
  -------         DO            
  D:0006H         SYMBOL        count
  -------         ENDDO         
  C:CF8AH         LINE#         115
  C:CF8AH         LINE#         116
  C:CF8AH         LINE#         117
  C:CF8CH         LINE#         118
BL51 BANKED LINKER/LOCATER V6.22                                                      08/26/2015  16:38:21  PAGE 177


  C:CF8CH         LINE#         119
  C:CF8CH         LINE#         120
  C:CF94H         LINE#         121
  C:CF96H         LINE#         122
  C:CF9AH         LINE#         123
  C:CF9CH         LINE#         124
  C:CFA0H         LINE#         125
  C:CFA2H         LINE#         126
  C:CFA7H         LINE#         127
  -------         ENDPROC       _TP_WRITE_BYTE
  -------         PROC          _TP_READ_AD
  D:0007H         SYMBOL        CMD
  -------         DO            
  D:0005H         SYMBOL        count
  D:0002H         SYMBOL        Num
  -------         ENDDO         
  C:C496H         LINE#         132
  C:C496H         LINE#         133
  C:C496H         LINE#         134
  C:C498H         LINE#         135
  C:C49AH         LINE#         136
  C:C49CH         LINE#         137
  C:C49EH         LINE#         138
  C:C4A0H         LINE#         139
  C:C4A1H         LINE#         140
  C:C4A4H         LINE#         142
  C:C4AAH         LINE#         143
  C:C4ACH         LINE#         144
  C:C4B0H         LINE#         146
  C:C4B2H         LINE#         147
  C:C4B6H         LINE#         149
  C:C4B6H         LINE#         150
  C:C4B6H         LINE#         151
  C:C4BDH         LINE#         152
  C:C4BFH         LINE#         153
  C:C4C3H         LINE#         154
  C:C4C5H         LINE#         155
  C:C4CDH         LINE#         156
  C:C4D2H         LINE#         157
  C:C4D4H         LINE#         158
  C:C4D8H         LINE#         159
  -------         ENDPROC       _TP_READ_AD
  -------         PROC          _TP_READ_XOY
  D:0001H         SYMBOL        xy
  -------         DO            
  X:0253H         SYMBOL        i
  D:0004H         SYMBOL        j
  X:0255H         SYMBOL        buf
  X:0269H         SYMBOL        sum
  X:026BH         SYMBOL        temp
  -------         ENDDO         
  C:A900H         LINE#         167
  C:A902H         LINE#         168
  C:A902H         LINE#         170
  C:A909H         LINE#         172
  C:A951H         LINE#         173
  C:A96BH         LINE#         174
BL51 BANKED LINKER/LOCATER V6.22                                                      08/26/2015  16:38:21  PAGE 178


  C:A96BH         LINE#         175
  C:A980H         LINE#         176
  C:A980H         LINE#         177
  C:A9B8H         LINE#         178
  C:A9B8H         LINE#         179
  C:A9C0H         LINE#         180
  C:A9F2H         LINE#         181
  C:AA10H         LINE#         182
  C:AA10H         LINE#         183
  C:AA18H         LINE#         184
  C:AA2CH         LINE#         185
  C:AA33H         LINE#         186
  C:AA7DH         LINE#         187
  C:AA92H         LINE#         188
  C:AA92H         LINE#         189
  -------         ENDPROC       _TP_READ_XOY
  -------         PROC          _TP_READ_XY
  X:024BH         SYMBOL        x
  X:024EH         SYMBOL        y
  -------         DO            
  X:0251H         SYMBOL        xtemp
  D:0006H         SYMBOL        ytemp
  -------         ENDDO         
  C:C243H         LINE#         194
  C:C24EH         LINE#         195
  C:C24EH         LINE#         197
  C:C25EH         LINE#         198
  C:C266H         LINE#         200
  C:C27EH         LINE#         201
  C:C28FH         LINE#         202
  C:C291H         LINE#         203
  -------         ENDPROC       _TP_READ_XY
  -------         PROC          _TP_READ_XY2
  X:023DH         SYMBOL        x
  X:0240H         SYMBOL        y
  -------         DO            
  X:0243H         SYMBOL        x1
  X:0245H         SYMBOL        y1
  X:0247H         SYMBOL        x2
  X:0249H         SYMBOL        y2
  D:0007H         SYMBOL        flag
  -------         ENDDO         
  C:AEB1H         LINE#         210
  C:AEBCH         LINE#         211
  C:AEBCH         LINE#         215
  C:AED3H         LINE#         216
  C:AED8H         LINE#         217
  C:AEEFH         LINE#         218
  C:AEF4H         LINE#         219
  C:AF8AH         LINE#         221
  C:AF8AH         LINE#         222
  C:AFB3H         LINE#         223
  C:AFDCH         LINE#         224
  C:AFDFH         LINE#         225
  C:AFE1H         LINE#         226
  -------         ENDPROC       _TP_READ_XY2
  -------         PROC          L?1116
BL51 BANKED LINKER/LOCATER V6.22                                                      08/26/2015  16:38:21  PAGE 179


  -------         ENDPROC       L?1116
  -------         PROC          _TP_DROW_TOUCH_POINT
  X:023DH         SYMBOL        x
  X:023FH         SYMBOL        y
  X:0241H         SYMBOL        color
  C:B100H         LINE#         234
  C:B114H         LINE#         235
  C:B114H         LINE#         236
  C:B155H         LINE#         237
  C:B198H         LINE#         238
  C:B1A8H         LINE#         239
  C:B1B8H         LINE#         240
  C:B1D6H         LINE#         241
  -------         ENDPROC       _TP_DROW_TOUCH_POINT
  -------         PROC          _TP_SCAN
  D:0004H         SYMBOL        tp
  C:B1FDH         LINE#         249
  C:B1FFH         LINE#         250
  C:B1FFH         LINE#         251
  C:B202H         LINE#         252
  C:B209H         LINE#         253
  C:B20FH         LINE#         254
  C:B20FH         LINE#         255
  C:B229H         LINE#         256
  C:B246H         LINE#         258
  C:B246H         LINE#         259
  C:B28DH         LINE#         260
  C:B2D2H         LINE#         261
  C:B2D2H         LINE#         263
  C:B2D3H         LINE#         265
  C:B2D3H         LINE#         268
  C:B2DAH         LINE#         269
  C:B2DEH         LINE#         271
  C:B2DEH         LINE#         274
  -------         ENDPROC       _TP_SCAN
  C:CEA6H         SYMBOL        L?1095
  C:CEADH         SYMBOL        L?1096
  C:CEAEH         SYMBOL        L?1097
  -------         PROC          L?1094
  -------         ENDPROC       L?1094
  C:CEA6H         SYMBOL        L?1095
  C:CEADH         SYMBOL        L?1096
  C:CEAEH         SYMBOL        L?1097
  -------         PROC          _MY_ABS
  D:0006H         SYMBOL        x1
  D:0004H         SYMBOL        x2
  C:CEB3H         LINE#         310
  C:CEB3H         LINE#         311
  C:CEB3H         LINE#         312
  C:CEC1H         LINE#         313
  C:CEC8H         LINE#         314
  -------         ENDPROC       _MY_ABS
  -------         PROC          TP_ADJUST
  -------         DO            
  X:021AH         SYMBOL        pos_temp
  X:022AH         SYMBOL        cnt
  X:022BH         SYMBOL        d1
BL51 BANKED LINKER/LOCATER V6.22                                                      08/26/2015  16:38:21  PAGE 180


  X:022DH         SYMBOL        d2
  X:022FH         SYMBOL        tem1
  X:0233H         SYMBOL        tem2
  X:0237H         SYMBOL        fac
  X:023BH         SYMBOL        outtime
  -------         ENDDO         
  C:75B2H         LINE#         320
  C:75B2H         LINE#         321
  C:75B2H         LINE#         323
  C:75B7H         LINE#         327
  C:75BDH         LINE#         328
  C:75C0H         LINE#         331
  C:75C0H         LINE#         332
  C:75C0H         LINE#         333
  C:75C3H         LINE#         334
  C:75C6H         LINE#         335
  C:75D1H         LINE#         336
  C:75DAH         LINE#         337
  C:75E3H         LINE#         338
  C:75ECH         LINE#         339
  C:75F5H         LINE#         340
  C:75FEH         LINE#         344
  C:760BH         LINE#         345
  C:7615H         LINE#         346
  C:7615H         LINE#         347
  C:761AH         LINE#         348
  C:7620H         LINE#         349
  C:7626H         LINE#         350
  C:7626H         LINE#         351
  C:762DH         LINE#         354
  C:764CH         LINE#         355
  C:7667H         LINE#         356
  C:766DH         LINE#         357
  C:767FH         LINE#         358
  C:767FH         LINE#         359
  C:7682H         LINE#         360
  C:7689H         LINE#         361
  C:7691H         LINE#         362
  C:7693H         LINE#         363
  C:7696H         LINE#         364
  C:769DH         LINE#         365
  C:76A9H         LINE#         366
  C:76ABH         LINE#         367
  C:76AEH         LINE#         368
  C:76BDH         LINE#         369
  C:76CCH         LINE#         370
  C:76CFH         LINE#         371
  C:76D2H         LINE#         373
  C:76E8H         LINE#         374
  C:76FFH         LINE#         375
  C:771DH         LINE#         376
  C:773BH         LINE#         377
  C:7773H         LINE#         380
  C:7782H         LINE#         381
  C:7799H         LINE#         382
  C:77B7H         LINE#         383
  C:77D5H         LINE#         384
BL51 BANKED LINKER/LOCATER V6.22                                                      08/26/2015  16:38:21  PAGE 181


  C:780DH         LINE#         385
  C:7846H         LINE#         386
  C:7892H         LINE#         388
  C:7892H         LINE#         389
  C:7892H         LINE#         390
  C:7892H         LINE#         391
  C:7892H         LINE#         393
  C:7895H         LINE#         394
  C:7895H         LINE#         395
  C:78ACH         LINE#         396
  C:78C3H         LINE#         397
  C:78E1H         LINE#         398
  C:78FFH         LINE#         399
  C:7937H         LINE#         401
  C:7946H         LINE#         402
  C:795DH         LINE#         403
  C:797BH         LINE#         404
  C:7999H         LINE#         405
  C:79D1H         LINE#         406
  C:7A0AH         LINE#         407
  C:7A42H         LINE#         409
  C:7A42H         LINE#         410
  C:7A42H         LINE#         411
  C:7A42H         LINE#         412
  C:7A42H         LINE#         414
  C:7A45H         LINE#         415
  C:7A45H         LINE#         418
  C:7A5CH         LINE#         419
  C:7A73H         LINE#         420
  C:7A91H         LINE#         421
  C:7AAFH         LINE#         422
  C:7AE7H         LINE#         424
  C:7AF6H         LINE#         425
  C:7B0DH         LINE#         426
  C:7B2BH         LINE#         427
  C:7B49H         LINE#         428
  C:7B81H         LINE#         429
  C:7BBAH         LINE#         430
  C:7BF2H         LINE#         432
  C:7BF2H         LINE#         433
  C:7BF7H         LINE#         434
  C:7C06H         LINE#         435
  C:7C15H         LINE#         437
  C:7C18H         LINE#         438
  C:7C18H         LINE#         441
  C:7C2EH         LINE#         442
  C:7C38H         LINE#         443
  C:7C69H         LINE#         445
  C:7CB8H         LINE#         447
  C:7CCEH         LINE#         448
  C:7CD8H         LINE#         449
  C:7D09H         LINE#         450
  C:7D58H         LINE#         452
  C:7D96H         LINE#         453
  C:7D96H         LINE#         454
  C:7D9BH         LINE#         455
  C:7DAAH         LINE#         456
BL51 BANKED LINKER/LOCATER V6.22                                                      08/26/2015  16:38:21  PAGE 182


  C:7DB9H         LINE#         458
  C:7DBAH         LINE#         459
  C:7DBAH         LINE#         460
  C:7DBDH         LINE#         461
  C:7DC0H         LINE#         462
  C:7DCBH         LINE#         463
  C:7DD4H         LINE#         466
  C:7DE5H         LINE#         467
  C:7DEAH         LINE#         469
  C:7DEAH         LINE#         470
  C:7DEDH         LINE#         471
  C:7DF3H         LINE#         472
  C:7DF6H         LINE#         473
  C:7DF6H         LINE#         474
  C:7DF9H         LINE#         475
  C:7DFFH         LINE#         476
  C:7DFFH         LINE#         477
  C:7E02H         LINE#         478
  C:7E02H         LINE#         480
  C:7E03H         LINE#         481
  C:7E03H         LINE#         482
  C:7E06H         LINE#         483
  C:7E09H         LINE#         484
  C:7E14H         LINE#         485
  C:7E1DH         LINE#         488
  C:7E24H         LINE#         489
  C:7E27H         LINE#         490
  C:7E2AH         LINE#         491
  C:7E2AH         LINE#         492
  C:7E2AH         LINE#         493
  C:7E2DH         LINE#         495
  -------         ENDPROC       TP_ADJUST
  -------         PROC          LOAD_DROW_DIALOG
  C:C102H         LINE#         500
  C:C102H         LINE#         501
  C:C102H         LINE#         502
  C:C105H         LINE#         505
  C:C106H         LINE#         506
  C:C106H         LINE#         507
  C:C109H         LINE#         508
  C:C10CH         LINE#         509
  C:C116H         LINE#         510
  C:C11FH         LINE#         511
  C:C127H         LINE#         512
  C:C130H         LINE#         513
  C:C139H         LINE#         514
  C:C142H         LINE#         515
  C:C14BH         LINE#         516
  -------         ENDPROC       LOAD_DROW_DIALOG
  -------         PROC          TPTEST
  -------         DO            
  X:0213H         SYMBOL        exit
  X:0214H         SYMBOL        ss
  -------         ENDDO         
  C:94CDH         LINE#         522
  C:94CDH         LINE#         523
  C:94D2H         LINE#         526
BL51 BANKED LINKER/LOCATER V6.22                                                      08/26/2015  16:38:21  PAGE 183


  C:94D5H         LINE#         528
  C:94F0H         LINE#         529
  C:94F8H         LINE#         530
  C:94FFH         LINE#         532
  C:9500H         LINE#         533
  C:9500H         LINE#         534
  C:9503H         LINE#         535
  C:9506H         LINE#         536
  C:9511H         LINE#         537
  C:951AH         LINE#         538
  C:9522H         LINE#         539
  C:952BH         LINE#         540
  C:9533H         LINE#         541
  C:953CH         LINE#         542
  C:9545H         LINE#         543
  C:954EH         LINE#         544
  C:9557H         LINE#         545
  C:9560H         LINE#         549
  C:9560H         LINE#         550
  C:9560H         LINE#         553
  C:9566H         LINE#         555
  C:956BH         LINE#         556
  C:9587H         LINE#         557
  C:9587H         LINE#         558
  C:959AH         LINE#         560
  C:95CAH         LINE#         563
  C:95E7H         LINE#         564
  C:95FCH         LINE#         565
  C:9619H         LINE#         566
  C:9636H         LINE#         567
  C:9653H         LINE#         570
  C:966BH         LINE#         571
  C:968BH         LINE#         572
  C:96ABH         LINE#         573
  C:96CBH         LINE#         574
  C:96CEH         LINE#         575
  C:96CEH         LINE#         577
  C:96CEH         LINE#         578
  C:96CEH         LINE#         579
  C:96D1H         LINE#         580
  C:96D4H         LINE#         581
  C:96DFH         LINE#         582
  C:96E8H         LINE#         583
  C:96F1H         LINE#         584
  C:96FAH         LINE#         587
  C:9712H         LINE#         588
  C:9732H         LINE#         589
  C:9752H         LINE#         590
  C:9772H         LINE#         591
  C:9775H         LINE#         592
  C:9775H         LINE#         594
  C:9775H         LINE#         595
  C:9775H         LINE#         596
  C:9778H         LINE#         597
  C:977BH         LINE#         598
  C:9786H         LINE#         599
  C:978FH         LINE#         600
BL51 BANKED LINKER/LOCATER V6.22                                                      08/26/2015  16:38:21  PAGE 184


  C:9798H         LINE#         601
  C:97A1H         LINE#         603
  C:97A1H         LINE#         604
  C:97A4H         LINE#         605
  C:97A7H         LINE#         607
  C:97AAH         LINE#         611
  -------         ENDPROC       TPTEST
  -------         PROC          MAIN
  C:B549H         LINE#         36
  C:B549H         LINE#         37
  C:B549H         LINE#         39
  C:B54CH         LINE#         40
  C:B54FH         LINE#         41
  C:B552H         LINE#         42
  C:B555H         LINE#         46
  C:B55CH         LINE#         47
  C:B55FH         LINE#         48
  C:B566H         LINE#         49
  C:B56DH         LINE#         51
  C:B570H         LINE#         52
  C:B573H         LINE#         53
  C:B57AH         LINE#         56
  C:B57CH         LINE#         57
  C:B57CH         LINE#         58
  C:B57CH         LINE#         59
  C:B57FH         LINE#         61
  C:B57FH         LINE#         62
  C:B57FH         LINE#         64
  C:B582H         LINE#         65
  C:B585H         LINE#         66
  C:B588H         LINE#         67
  C:B58BH         LINE#         68
  C:B58EH         LINE#         69
  C:B591H         LINE#         70
  C:B594H         LINE#         71
  C:B597H         LINE#         72
  C:B59EH         LINE#         73
  C:B5A5H         LINE#         75
  C:B5ABH         LINE#         76
  C:B5B2H         LINE#         77
  C:B5B9H         LINE#         78
  C:B5C0H         LINE#         79
  C:B5C7H         LINE#         80
  C:B5CEH         LINE#         86
  C:B5D1H         LINE#         87
  C:B5D4H         LINE#         88
  C:B5D7H         LINE#         89
  C:B5DAH         LINE#         90
  C:B5DDH         LINE#         91
  C:B5E4H         LINE#         92
  C:B5E7H         LINE#         93
  C:B5EEH         LINE#         94
  C:B5F1H         LINE#         95
  C:B5F4H         LINE#         96
  C:B5F7H         LINE#         97
  C:B5FAH         LINE#         99
  C:B5FDH         LINE#         100
BL51 BANKED LINKER/LOCATER V6.22                                                      08/26/2015  16:38:21  PAGE 185


  C:B600H         LINE#         101
  C:B603H         LINE#         103
  C:B606H         LINE#         104
  C:B609H         LINE#         105
  C:B60CH         LINE#         106
  -------         ENDPROC       MAIN
  -------         ENDMOD        RA8876

  -------         MODULE        ?C?FPADD
  C:7E37H         PUBLIC        ?C?FPADD
  C:7E33H         PUBLIC        ?C?FPSUB
  -------         ENDMOD        ?C?FPADD

  -------         MODULE        ?C?FPMUL
  C:7F28H         PUBLIC        ?C?FPMUL
  -------         ENDMOD        ?C?FPMUL

  -------         MODULE        ?C?FPDIV
  C:8031H         PUBLIC        ?C?FPDIV
  -------         ENDMOD        ?C?FPDIV

  -------         MODULE        ?C?FPCMP
  C:80D0H         PUBLIC        ?C?FPCMP
  C:80CEH         PUBLIC        ?C?FPCMP3
  -------         ENDMOD        ?C?FPCMP

  -------         MODULE        ?C?FCAST
  C:8145H         PUBLIC        ?C?FCASTC
  C:8140H         PUBLIC        ?C?FCASTI
  C:813BH         PUBLIC        ?C?FCASTL
  -------         ENDMOD        ?C?FCAST

  -------         MODULE        ?C?CASTF
  C:8179H         PUBLIC        ?C?CASTF
  -------         ENDMOD        ?C?CASTF

  -------         MODULE        SQRT
  C:B77EH         PUBLIC        _SQRT
  -------         ENDMOD        SQRT

  -------         MODULE        ?C?CLDPTR
  C:81FAH         PUBLIC        ?C?CLDPTR
  -------         ENDMOD        ?C?CLDPTR

  -------         MODULE        ?C?CSTPTR
  C:8213H         PUBLIC        ?C?CSTPTR
  -------         ENDMOD        ?C?CSTPTR

  -------         MODULE        ?C?IMUL
  C:8225H         PUBLIC        ?C?IMUL
  -------         ENDMOD        ?C?IMUL

  -------         MODULE        ?C?UIDIV
  C:8237H         PUBLIC        ?C?UIDIV
  -------         ENDMOD        ?C?UIDIV

  -------         MODULE        ?C?SIDIV
BL51 BANKED LINKER/LOCATER V6.22                                                      08/26/2015  16:38:21  PAGE 186


  C:828CH         PUBLIC        ?C?SIDIV
  -------         ENDMOD        ?C?SIDIV

  -------         MODULE        ?C?IILDX
  C:82C2H         PUBLIC        ?C?IILDX
  -------         ENDMOD        ?C?IILDX

  -------         MODULE        ?C?ILDIX
  C:82D8H         PUBLIC        ?C?ILDIX
  -------         ENDMOD        ?C?ILDIX

  -------         MODULE        ?C?ILDOPTR
  C:82EEH         PUBLIC        ?C?ILDOPTR
  -------         ENDMOD        ?C?ILDOPTR

  -------         MODULE        ?C?ISTPTR
  C:8326H         PUBLIC        ?C?ISTPTR
  -------         ENDMOD        ?C?ISTPTR

  -------         MODULE        ?C?LMUL
  C:8345H         PUBLIC        ?C?LMUL
  -------         ENDMOD        ?C?LMUL

  -------         MODULE        ?C?LNEG
  C:8394H         PUBLIC        ?C?LNEG
  -------         ENDMOD        ?C?LNEG

  -------         MODULE        ?C?ULCMP
  C:83A2H         PUBLIC        ?C?ULCMP
  -------         ENDMOD        ?C?ULCMP

  -------         MODULE        ?C?ULSHR
  C:83B3H         PUBLIC        ?C?ULSHR
  -------         ENDMOD        ?C?ULSHR

  -------         MODULE        ?C?LLDXDATA
  C:83C6H         PUBLIC        ?C?LLDXDATA
  -------         ENDMOD        ?C?LLDXDATA

  -------         MODULE        ?C?LSTXDATA
  C:83D2H         PUBLIC        ?C?LSTXDATA
  -------         ENDMOD        ?C?LSTXDATA

  -------         MODULE        ?C?LSTKXDATA
  C:83DEH         PUBLIC        ?C?LSTKXDATA
  -------         ENDMOD        ?C?LSTKXDATA

  -------         MODULE        RAND
  X:0298H         PUBLIC        ?SRAND?BYTE
  C:C32EH         PUBLIC        RAND
  C:C36CH         PUBLIC        _SRAND
  -------         ENDMOD        RAND

  -------         MODULE        ABS
  C:E850H         PUBLIC        _ABS
  -------         ENDMOD        ABS

BL51 BANKED LINKER/LOCATER V6.22                                                      08/26/2015  16:38:21  PAGE 187


*** WARNING L16: UNCALLED SEGMENT, IGNORED FOR OVERLAY PROCESS
    SEGMENT: ?PR?_DELAY10MS?RA8876

*** WARNING L16: UNCALLED SEGMENT, IGNORED FOR OVERLAY PROCESS
    SEGMENT: ?PR?_LCD_REGISTERREAD?RA8876

*** WARNING L16: UNCALLED SEGMENT, IGNORED FOR OVERLAY PROCESS
    SEGMENT: ?PR?_LCD_CLEAR?RA8876

*** WARNING L16: UNCALLED SEGMENT, IGNORED FOR OVERLAY PROCESS
    SEGMENT: ?PR?CHECK_MEM_RD_FIFO_NOT_FULL?RA8876

*** WARNING L16: UNCALLED SEGMENT, IGNORED FOR OVERLAY PROCESS
    SEGMENT: ?PR?POWER_SAVING_STATUS?RA8876

*** WARNING L16: UNCALLED SEGMENT, IGNORED FOR OVERLAY PROCESS
    SEGMENT: ?PR?CHECK_POWER_IS_NORMAL?RA8876

*** WARNING L16: UNCALLED SEGMENT, IGNORED FOR OVERLAY PROCESS
    SEGMENT: ?PR?CHECK_POWER_IS_SAVING?RA8876

*** WARNING L16: UNCALLED SEGMENT, IGNORED FOR OVERLAY PROCESS
    SEGMENT: ?PR?CHECK_NO_INTERRUPT?RA8876

*** WARNING L16: UNCALLED SEGMENT, IGNORED FOR OVERLAY PROCESS
    SEGMENT: ?PR?CHECK_INTERRUPT_OCCUR?RA8876

*** WARNING L16: UNCALLED SEGMENT, IGNORED FOR OVERLAY PROCESS
    SEGMENT: ?PR?ENABLE_PLL?RA8876

*** WARNING L16: UNCALLED SEGMENT, IGNORED FOR OVERLAY PROCESS
    SEGMENT: ?PR?RA8876_SLEEP?RA8876

*** WARNING L16: UNCALLED SEGMENT, IGNORED FOR OVERLAY PROCESS
    SEGMENT: ?PR?RA8876_WAKEUP?RA8876

*** WARNING L16: UNCALLED SEGMENT, IGNORED FOR OVERLAY PROCESS
    SEGMENT: ?PR?KEY_SCAN_ENABLE?RA8876

*** WARNING L16: UNCALLED SEGMENT, IGNORED FOR OVERLAY PROCESS
    SEGMENT: ?PR?KEY_SCAN_DISABLE?RA8876

*** WARNING L16: UNCALLED SEGMENT, IGNORED FOR OVERLAY PROCESS
    SEGMENT: ?PR?TFT_18BIT?RA8876

*** WARNING L16: UNCALLED SEGMENT, IGNORED FOR OVERLAY PROCESS
    SEGMENT: ?PR?TFT_16BIT?RA8876

*** WARNING L16: UNCALLED SEGMENT, IGNORED FOR OVERLAY PROCESS
    SEGMENT: ?PR?TFT_LVDS?RA8876

*** WARNING L16: UNCALLED SEGMENT, IGNORED FOR OVERLAY PROCESS
    SEGMENT: ?PR?RA8876_I2CM_ENABLE?RA8876

*** WARNING L16: UNCALLED SEGMENT, IGNORED FOR OVERLAY PROCESS
    SEGMENT: ?PR?RA8876_I2CM_DISABLE?RA8876

BL51 BANKED LINKER/LOCATER V6.22                                                      08/26/2015  16:38:21  PAGE 188


*** WARNING L16: UNCALLED SEGMENT, IGNORED FOR OVERLAY PROCESS
    SEGMENT: ?PR?DISABLE_SFLASH_SPI?RA8876

*** WARNING L16: UNCALLED SEGMENT, IGNORED FOR OVERLAY PROCESS
    SEGMENT: ?PR?HOST_BUS_16BIT?RA8876

*** WARNING L16: UNCALLED SEGMENT, IGNORED FOR OVERLAY PROCESS
    SEGMENT: ?PR?RGB_8B_8BPP?RA8876

*** WARNING L16: UNCALLED SEGMENT, IGNORED FOR OVERLAY PROCESS
    SEGMENT: ?PR?RGB_8B_24BPP?RA8876

*** WARNING L16: UNCALLED SEGMENT, IGNORED FOR OVERLAY PROCESS
    SEGMENT: ?PR?RGB_16B_8BPP?RA8876

*** WARNING L16: UNCALLED SEGMENT, IGNORED FOR OVERLAY PROCESS
    SEGMENT: ?PR?RGB_16B_16BPP?RA8876

*** WARNING L16: UNCALLED SEGMENT, IGNORED FOR OVERLAY PROCESS
    SEGMENT: ?PR?RGB_16B_24BPP_MODE1?RA8876

*** WARNING L16: UNCALLED SEGMENT, IGNORED FOR OVERLAY PROCESS
    SEGMENT: ?PR?RGB_16B_24BPP_MODE2?RA8876

*** WARNING L16: UNCALLED SEGMENT, IGNORED FOR OVERLAY PROCESS
    SEGMENT: ?PR?MEMREAD_LEFT_RIGHT_TOP_DOWN?RA8876

*** WARNING L16: UNCALLED SEGMENT, IGNORED FOR OVERLAY PROCESS
    SEGMENT: ?PR?MEMREAD_RIGHT_LEFT_TOP_DOWN?RA8876

*** WARNING L16: UNCALLED SEGMENT, IGNORED FOR OVERLAY PROCESS
    SEGMENT: ?PR?MEMREAD_TOP_DOWN_LEFT_RIGHT?RA8876

*** WARNING L16: UNCALLED SEGMENT, IGNORED FOR OVERLAY PROCESS
    SEGMENT: ?PR?MEMREAD_DOWN_TOP_LEFT_RIGHT?RA8876

*** WARNING L16: UNCALLED SEGMENT, IGNORED FOR OVERLAY PROCESS
    SEGMENT: ?PR?MEMWRITE_RIGHT_LEFT_TOP_DOWN?RA8876

*** WARNING L16: UNCALLED SEGMENT, IGNORED FOR OVERLAY PROCESS
    SEGMENT: ?PR?MEMWRITE_TOP_DOWN_LEFT_RIGHT?RA8876

*** WARNING L16: UNCALLED SEGMENT, IGNORED FOR OVERLAY PROCESS
    SEGMENT: ?PR?MEMWRITE_DOWN_TOP_LEFT_RIGHT?RA8876

*** WARNING L16: UNCALLED SEGMENT, IGNORED FOR OVERLAY PROCESS
    SEGMENT: ?PR?INTERRUPT_ACTIVE_LOW?RA8876

*** WARNING L16: UNCALLED SEGMENT, IGNORED FOR OVERLAY PROCESS
    SEGMENT: ?PR?INTERRUPT_ACTIVE_HIGH?RA8876

*** WARNING L16: UNCALLED SEGMENT, IGNORED FOR OVERLAY PROCESS
    SEGMENT: ?PR?EXTINTERRUPT_DEBOUNCE?RA8876

*** WARNING L16: UNCALLED SEGMENT, IGNORED FOR OVERLAY PROCESS
    SEGMENT: ?PR?EXTINTERRUPT_NODEBOUNCE?RA8876

BL51 BANKED LINKER/LOCATER V6.22                                                      08/26/2015  16:38:21  PAGE 189


*** WARNING L16: UNCALLED SEGMENT, IGNORED FOR OVERLAY PROCESS
    SEGMENT: ?PR?EXTINTERRUPT_INPUT_LOW_LEVEL_TRIGGER?RA8876

*** WARNING L16: UNCALLED SEGMENT, IGNORED FOR OVERLAY PROCESS
    SEGMENT: ?PR?EXTINTERRUPT_INPUT_HIGH_LEVEL_TRIGGER?RA8876

*** WARNING L16: UNCALLED SEGMENT, IGNORED FOR OVERLAY PROCESS
    SEGMENT: ?PR?EXTINTERRUPT_INPUT_FALLING_EDGE_TRIGGER?RA8876

*** WARNING L16: UNCALLED SEGMENT, IGNORED FOR OVERLAY PROCESS
    SEGMENT: ?PR?EXTINTERRUPT_INPUT_RISING_EDGE_TRIGGER?RA8876

*** WARNING L16: UNCALLED SEGMENT, IGNORED FOR OVERLAY PROCESS
    SEGMENT: ?PR?LVDS_FORMAT1?RA8876

*** WARNING L16: UNCALLED SEGMENT, IGNORED FOR OVERLAY PROCESS
    SEGMENT: ?PR?LVDS_FORMAT2?RA8876

*** WARNING L16: UNCALLED SEGMENT, IGNORED FOR OVERLAY PROCESS
    SEGMENT: ?PR?MEMORY_SELECT_COLOR_PALETTE_RAM?RA8876

*** WARNING L16: UNCALLED SEGMENT, IGNORED FOR OVERLAY PROCESS
    SEGMENT: ?PR?ENABLE_RESUME_INTERRUPT?RA8876

*** WARNING L16: UNCALLED SEGMENT, IGNORED FOR OVERLAY PROCESS
    SEGMENT: ?PR?DISABLE_RESUME_INTERRUPT?RA8876

*** WARNING L16: UNCALLED SEGMENT, IGNORED FOR OVERLAY PROCESS
    SEGMENT: ?PR?ENABLE_EXTINTERRUPT_INPUT?RA8876

*** WARNING L16: UNCALLED SEGMENT, IGNORED FOR OVERLAY PROCESS
    SEGMENT: ?PR?DISABLE_EXTINTERRUPT_INPUT?RA8876

*** WARNING L16: UNCALLED SEGMENT, IGNORED FOR OVERLAY PROCESS
    SEGMENT: ?PR?ENABLE_I2CM_INTERRUPT?RA8876

*** WARNING L16: UNCALLED SEGMENT, IGNORED FOR OVERLAY PROCESS
    SEGMENT: ?PR?DISABLE_I2CM_INTERRUPT?RA8876

*** WARNING L16: UNCALLED SEGMENT, IGNORED FOR OVERLAY PROCESS
    SEGMENT: ?PR?ENABLE_VSYNC_INTERRUPT?RA8876

*** WARNING L16: UNCALLED SEGMENT, IGNORED FOR OVERLAY PROCESS
    SEGMENT: ?PR?DISABLE_VSYNC_INTERRUPT?RA8876

*** WARNING L16: UNCALLED SEGMENT, IGNORED FOR OVERLAY PROCESS
    SEGMENT: ?PR?ENABLE_KEYSCAN_INTERRUPT?RA8876

*** WARNING L16: UNCALLED SEGMENT, IGNORED FOR OVERLAY PROCESS
    SEGMENT: ?PR?DISABLE_KEYSCAN_INTERRUPT?RA8876

*** WARNING L16: UNCALLED SEGMENT, IGNORED FOR OVERLAY PROCESS
    SEGMENT: ?PR?ENABLE_DMA_DRAW_BTE_INTERRUPT?RA8876

*** WARNING L16: UNCALLED SEGMENT, IGNORED FOR OVERLAY PROCESS
    SEGMENT: ?PR?DISABLE_DMA_DRAW_BTE_INTERRUPT?RA8876

BL51 BANKED LINKER/LOCATER V6.22                                                      08/26/2015  16:38:21  PAGE 190


*** WARNING L16: UNCALLED SEGMENT, IGNORED FOR OVERLAY PROCESS
    SEGMENT: ?PR?ENABLE_PWM1_INTERRUPT?RA8876

*** WARNING L16: UNCALLED SEGMENT, IGNORED FOR OVERLAY PROCESS
    SEGMENT: ?PR?DISABLE_PWM1_INTERRUPT?RA8876

*** WARNING L16: UNCALLED SEGMENT, IGNORED FOR OVERLAY PROCESS
    SEGMENT: ?PR?DISABLE_PWM0_INTERRUPT?RA8876

*** WARNING L16: UNCALLED SEGMENT, IGNORED FOR OVERLAY PROCESS
    SEGMENT: ?PR?READ_INTERRUPT_STATUS?RA8876

*** WARNING L16: UNCALLED SEGMENT, IGNORED FOR OVERLAY PROCESS
    SEGMENT: ?PR?CLEAR_RESUME_INTERRUPT_FLAG?RA8876

*** WARNING L16: UNCALLED SEGMENT, IGNORED FOR OVERLAY PROCESS
    SEGMENT: ?PR?CLEAR_EXTINTERRUPT_INPUT_FLAG?RA8876

*** WARNING L16: UNCALLED SEGMENT, IGNORED FOR OVERLAY PROCESS
    SEGMENT: ?PR?CLEAR_I2CM_INTERRUPT_FLAG?RA8876

*** WARNING L16: UNCALLED SEGMENT, IGNORED FOR OVERLAY PROCESS
    SEGMENT: ?PR?CLEAR_VSYNC_INTERRUPT_FLAG?RA8876

*** WARNING L16: UNCALLED SEGMENT, IGNORED FOR OVERLAY PROCESS
    SEGMENT: ?PR?CLEAR_KEYSCAN_INTERRUPT_FLAG?RA8876

*** WARNING L16: UNCALLED SEGMENT, IGNORED FOR OVERLAY PROCESS
    SEGMENT: ?PR?CLEAR_DMA_DRAW_BTE_INTERRUPT_FLAG?RA8876

*** WARNING L16: UNCALLED SEGMENT, IGNORED FOR OVERLAY PROCESS
    SEGMENT: ?PR?CLEAR_PWM1_INTERRUPT_FLAG?RA8876

*** WARNING L16: UNCALLED SEGMENT, IGNORED FOR OVERLAY PROCESS
    SEGMENT: ?PR?MASK_RESUME_INTERRUPT_FLAG?RA8876

*** WARNING L16: UNCALLED SEGMENT, IGNORED FOR OVERLAY PROCESS
    SEGMENT: ?PR?MASK_EXTINTERRUPT_INPUT_FLAG?RA8876

*** WARNING L16: UNCALLED SEGMENT, IGNORED FOR OVERLAY PROCESS
    SEGMENT: ?PR?MASK_I2CM_INTERRUPT_FLAG?RA8876

*** WARNING L16: UNCALLED SEGMENT, IGNORED FOR OVERLAY PROCESS
    SEGMENT: ?PR?MASK_VSYNC_INTERRUPT_FLAG?RA8876

*** WARNING L16: UNCALLED SEGMENT, IGNORED FOR OVERLAY PROCESS
    SEGMENT: ?PR?MASK_KEYSCAN_INTERRUPT_FLAG?RA8876

*** WARNING L16: UNCALLED SEGMENT, IGNORED FOR OVERLAY PROCESS
    SEGMENT: ?PR?MASK_DMA_DRAW_BTE_INTERRUPT_FLAG?RA8876

*** WARNING L16: UNCALLED SEGMENT, IGNORED FOR OVERLAY PROCESS
    SEGMENT: ?PR?MASK_PWM1_INTERRUPT_FLAG?RA8876

*** WARNING L16: UNCALLED SEGMENT, IGNORED FOR OVERLAY PROCESS
    SEGMENT: ?PR?ENABLE_RESUME_INTERRUPT_FLAG?RA8876

BL51 BANKED LINKER/LOCATER V6.22                                                      08/26/2015  16:38:21  PAGE 191


*** WARNING L16: UNCALLED SEGMENT, IGNORED FOR OVERLAY PROCESS
    SEGMENT: ?PR?ENABLE_EXTINTERRUPT_INPUR_FLAG?RA8876

*** WARNING L16: UNCALLED SEGMENT, IGNORED FOR OVERLAY PROCESS
    SEGMENT: ?PR?ENABLE_I2CM_INTERRUPT_FLAG?RA8876

*** WARNING L16: UNCALLED SEGMENT, IGNORED FOR OVERLAY PROCESS
    SEGMENT: ?PR?ENABLE_VSYNC_INTERRUPT_FLAG?RA8876

*** WARNING L16: UNCALLED SEGMENT, IGNORED FOR OVERLAY PROCESS
    SEGMENT: ?PR?ENABLE_KEYSCAN_INTERRUPT_FLAG?RA8876

*** WARNING L16: UNCALLED SEGMENT, IGNORED FOR OVERLAY PROCESS
    SEGMENT: ?PR?ENABLE_DMA_DRAW_BTE_INTERRUPT_FLAG?RA8876

*** WARNING L16: UNCALLED SEGMENT, IGNORED FOR OVERLAY PROCESS
    SEGMENT: ?PR?ENABLE_PWM1_INTERRUPT_FLAG?RA8876

*** WARNING L16: UNCALLED SEGMENT, IGNORED FOR OVERLAY PROCESS
    SEGMENT: ?PR?ENABLE_PWM0_INTERRUPT_FLAG?RA8876

*** WARNING L16: UNCALLED SEGMENT, IGNORED FOR OVERLAY PROCESS
    SEGMENT: ?PR?ENABLE_GPIOF_PULLUP?RA8876

*** WARNING L16: UNCALLED SEGMENT, IGNORED FOR OVERLAY PROCESS
    SEGMENT: ?PR?ENABLE_GPIOE_PULLUP?RA8876

*** WARNING L16: UNCALLED SEGMENT, IGNORED FOR OVERLAY PROCESS
    SEGMENT: ?PR?ENABLE_GPIOD_PULLUP?RA8876

*** WARNING L16: UNCALLED SEGMENT, IGNORED FOR OVERLAY PROCESS
    SEGMENT: ?PR?ENABLE_GPIOC_PULLUP?RA8876

*** WARNING L16: UNCALLED SEGMENT, IGNORED FOR OVERLAY PROCESS
    SEGMENT: ?PR?ENABLE_XDB15_8_PULLUP?RA8876

*** WARNING L16: UNCALLED SEGMENT, IGNORED FOR OVERLAY PROCESS
    SEGMENT: ?PR?ENABLE_XDB7_0_PULLUP?RA8876

*** WARNING L16: UNCALLED SEGMENT, IGNORED FOR OVERLAY PROCESS
    SEGMENT: ?PR?DISABLE_GPIOF_PULLUP?RA8876

*** WARNING L16: UNCALLED SEGMENT, IGNORED FOR OVERLAY PROCESS
    SEGMENT: ?PR?DISABLE_GPIOE_PULLUP?RA8876

*** WARNING L16: UNCALLED SEGMENT, IGNORED FOR OVERLAY PROCESS
    SEGMENT: ?PR?DISABLE_GPIOD_PULLUP?RA8876

*** WARNING L16: UNCALLED SEGMENT, IGNORED FOR OVERLAY PROCESS
    SEGMENT: ?PR?DISABLE_GPIOC_PULLUP?RA8876

*** WARNING L16: UNCALLED SEGMENT, IGNORED FOR OVERLAY PROCESS
    SEGMENT: ?PR?DISABLE_XDB15_8_PULLUP?RA8876

*** WARNING L16: UNCALLED SEGMENT, IGNORED FOR OVERLAY PROCESS
    SEGMENT: ?PR?DISABLE_XDB7_0_PULLUP?RA8876

BL51 BANKED LINKER/LOCATER V6.22                                                      08/26/2015  16:38:21  PAGE 192


*** WARNING L16: UNCALLED SEGMENT, IGNORED FOR OVERLAY PROCESS
    SEGMENT: ?PR?XPDAT18_SET_GPIO_D7?RA8876

*** WARNING L16: UNCALLED SEGMENT, IGNORED FOR OVERLAY PROCESS
    SEGMENT: ?PR?XPDAT18_SET_KOUT4?RA8876

*** WARNING L16: UNCALLED SEGMENT, IGNORED FOR OVERLAY PROCESS
    SEGMENT: ?PR?XPDAT17_SET_GPIO_D5?RA8876

*** WARNING L16: UNCALLED SEGMENT, IGNORED FOR OVERLAY PROCESS
    SEGMENT: ?PR?XPDAT17_SET_KOUT2?RA8876

*** WARNING L16: UNCALLED SEGMENT, IGNORED FOR OVERLAY PROCESS
    SEGMENT: ?PR?XPDAT16_SET_GPIO_D4?RA8876

*** WARNING L16: UNCALLED SEGMENT, IGNORED FOR OVERLAY PROCESS
    SEGMENT: ?PR?XPDAT16_SET_KOUT1?RA8876

*** WARNING L16: UNCALLED SEGMENT, IGNORED FOR OVERLAY PROCESS
    SEGMENT: ?PR?XPDAT9_SET_GPIO_D3?RA8876

*** WARNING L16: UNCALLED SEGMENT, IGNORED FOR OVERLAY PROCESS
    SEGMENT: ?PR?XPDAT9_SET_KOUT3?RA8876

*** WARNING L16: UNCALLED SEGMENT, IGNORED FOR OVERLAY PROCESS
    SEGMENT: ?PR?XPDAT8_SET_GPIO_D2?RA8876

*** WARNING L16: UNCALLED SEGMENT, IGNORED FOR OVERLAY PROCESS
    SEGMENT: ?PR?XPDAT8_SET_KIN3?RA8876

*** WARNING L16: UNCALLED SEGMENT, IGNORED FOR OVERLAY PROCESS
    SEGMENT: ?PR?XPDAT2_SET_GPIO_D6?RA8876

*** WARNING L16: UNCALLED SEGMENT, IGNORED FOR OVERLAY PROCESS
    SEGMENT: ?PR?XPDAT2_SET_KIN4?RA8876

*** WARNING L16: UNCALLED SEGMENT, IGNORED FOR OVERLAY PROCESS
    SEGMENT: ?PR?XPDAT1_SET_GPIO_D1?RA8876

*** WARNING L16: UNCALLED SEGMENT, IGNORED FOR OVERLAY PROCESS
    SEGMENT: ?PR?XPDAT1_SET_KIN2?RA8876

*** WARNING L16: UNCALLED SEGMENT, IGNORED FOR OVERLAY PROCESS
    SEGMENT: ?PR?XPDAT0_SET_GPIO_D0?RA8876

*** WARNING L16: UNCALLED SEGMENT, IGNORED FOR OVERLAY PROCESS
    SEGMENT: ?PR?XPDAT0_SET_KIN1?RA8876

*** WARNING L16: UNCALLED SEGMENT, IGNORED FOR OVERLAY PROCESS
    SEGMENT: ?PR?SELECT_MAIN_WINDOW_8BPP?RA8876

*** WARNING L16: UNCALLED SEGMENT, IGNORED FOR OVERLAY PROCESS
    SEGMENT: ?PR?SELECT_MAIN_WINDOW_24BPP?RA8876

*** WARNING L16: UNCALLED SEGMENT, IGNORED FOR OVERLAY PROCESS
    SEGMENT: ?PR?SELECT_PIP2_WINDOW_8BPP?RA8876

BL51 BANKED LINKER/LOCATER V6.22                                                      08/26/2015  16:38:21  PAGE 193


*** WARNING L16: UNCALLED SEGMENT, IGNORED FOR OVERLAY PROCESS
    SEGMENT: ?PR?SELECT_PIP2_WINDOW_24BPP?RA8876

*** WARNING L16: UNCALLED SEGMENT, IGNORED FOR OVERLAY PROCESS
    SEGMENT: ?PR?SELECT_PIP1_WINDOW_8BPP?RA8876

*** WARNING L16: UNCALLED SEGMENT, IGNORED FOR OVERLAY PROCESS
    SEGMENT: ?PR?SELECT_PIP1_WINDOW_24BPP?RA8876

*** WARNING L16: UNCALLED SEGMENT, IGNORED FOR OVERLAY PROCESS
    SEGMENT: ?PR?PCLK_RISING?RA8876

*** WARNING L16: UNCALLED SEGMENT, IGNORED FOR OVERLAY PROCESS
    SEGMENT: ?PR?DISPLAY_OFF?RA8876

*** WARNING L16: UNCALLED SEGMENT, IGNORED FOR OVERLAY PROCESS
    SEGMENT: ?PR?COLOR_BAR_ON?RA8876

*** WARNING L16: UNCALLED SEGMENT, IGNORED FOR OVERLAY PROCESS
    SEGMENT: ?PR?COLOR_BAR_OFF?RA8876

*** WARNING L16: UNCALLED SEGMENT, IGNORED FOR OVERLAY PROCESS
    SEGMENT: ?PR?HSCAN_R_TO_L?RA8876

*** WARNING L16: UNCALLED SEGMENT, IGNORED FOR OVERLAY PROCESS
    SEGMENT: ?PR?VSCAN_B_TO_T?RA8876

*** WARNING L16: UNCALLED SEGMENT, IGNORED FOR OVERLAY PROCESS
    SEGMENT: ?PR?PDATA_SET_RBG?RA8876

*** WARNING L16: UNCALLED SEGMENT, IGNORED FOR OVERLAY PROCESS
    SEGMENT: ?PR?PDATA_SET_GRB?RA8876

*** WARNING L16: UNCALLED SEGMENT, IGNORED FOR OVERLAY PROCESS
    SEGMENT: ?PR?PDATA_SET_GBR?RA8876

*** WARNING L16: UNCALLED SEGMENT, IGNORED FOR OVERLAY PROCESS
    SEGMENT: ?PR?PDATA_SET_BRG?RA8876

*** WARNING L16: UNCALLED SEGMENT, IGNORED FOR OVERLAY PROCESS
    SEGMENT: ?PR?PDATA_SET_BGR?RA8876

*** WARNING L16: UNCALLED SEGMENT, IGNORED FOR OVERLAY PROCESS
    SEGMENT: ?PR?PDATA_IDLE_STATE?RA8876

*** WARNING L16: UNCALLED SEGMENT, IGNORED FOR OVERLAY PROCESS
    SEGMENT: ?PR?HSYNC_LOW_ACTIVE?RA8876

*** WARNING L16: UNCALLED SEGMENT, IGNORED FOR OVERLAY PROCESS
    SEGMENT: ?PR?VSYNC_LOW_ACTIVE?RA8876

*** WARNING L16: UNCALLED SEGMENT, IGNORED FOR OVERLAY PROCESS
    SEGMENT: ?PR?DE_LOW_ACTIVE?RA8876

*** WARNING L16: UNCALLED SEGMENT, IGNORED FOR OVERLAY PROCESS
    SEGMENT: ?PR?IDLE_DE_LOW?RA8876

BL51 BANKED LINKER/LOCATER V6.22                                                      08/26/2015  16:38:21  PAGE 194


*** WARNING L16: UNCALLED SEGMENT, IGNORED FOR OVERLAY PROCESS
    SEGMENT: ?PR?IDLE_DE_HIGH?RA8876

*** WARNING L16: UNCALLED SEGMENT, IGNORED FOR OVERLAY PROCESS
    SEGMENT: ?PR?IDLE_PCLK_LOW?RA8876

*** WARNING L16: UNCALLED SEGMENT, IGNORED FOR OVERLAY PROCESS
    SEGMENT: ?PR?IDLE_PCLK_HIGH?RA8876

*** WARNING L16: UNCALLED SEGMENT, IGNORED FOR OVERLAY PROCESS
    SEGMENT: ?PR?IDLE_PDAT_LOW?RA8876

*** WARNING L16: UNCALLED SEGMENT, IGNORED FOR OVERLAY PROCESS
    SEGMENT: ?PR?IDLE_PDAT_HIGH?RA8876

*** WARNING L16: UNCALLED SEGMENT, IGNORED FOR OVERLAY PROCESS
    SEGMENT: ?PR?IDLE_HSYNC_LOW?RA8876

*** WARNING L16: UNCALLED SEGMENT, IGNORED FOR OVERLAY PROCESS
    SEGMENT: ?PR?IDLE_HSYNC_HIGH?RA8876

*** WARNING L16: UNCALLED SEGMENT, IGNORED FOR OVERLAY PROCESS
    SEGMENT: ?PR?IDLE_VSYNC_LOW?RA8876

*** WARNING L16: UNCALLED SEGMENT, IGNORED FOR OVERLAY PROCESS
    SEGMENT: ?PR?IDLE_VSYNC_HIGH?RA8876

*** WARNING L16: UNCALLED SEGMENT, IGNORED FOR OVERLAY PROCESS
    SEGMENT: ?PR?DISABLE_TEXT_CURSOR_BLINKING?RA8876

*** WARNING L16: UNCALLED SEGMENT, IGNORED FOR OVERLAY PROCESS
    SEGMENT: ?PR?SELECT_WRITE_DATA_POSITION?RA8876

*** WARNING L16: UNCALLED SEGMENT, IGNORED FOR OVERLAY PROCESS
    SEGMENT: ?PR?SELECT_READ_DATA_POSITION?RA8876

*** WARNING L16: UNCALLED SEGMENT, IGNORED FOR OVERLAY PROCESS
    SEGMENT: ?PR?MEMORY_LINEAR_MODE?RA8876

*** WARNING L16: UNCALLED SEGMENT, IGNORED FOR OVERLAY PROCESS
    SEGMENT: ?PR?MEMORY_8BPP_MODE?RA8876

*** WARNING L16: UNCALLED SEGMENT, IGNORED FOR OVERLAY PROCESS
    SEGMENT: ?PR?MEMORY_24BPP_MODE?RA8876

*** WARNING L16: UNCALLED SEGMENT, IGNORED FOR OVERLAY PROCESS
    SEGMENT: ?PR?_GOTO_LINEAR_ADDR?RA8876

*** WARNING L16: UNCALLED SEGMENT, IGNORED FOR OVERLAY PROCESS
    SEGMENT: ?PR?START_TRIANGLE_FILL?RA8876

*** WARNING L16: UNCALLED SEGMENT, IGNORED FOR OVERLAY PROCESS
    SEGMENT: ?PR?_SQUARE_START_XY?RA8876

*** WARNING L16: UNCALLED SEGMENT, IGNORED FOR OVERLAY PROCESS
    SEGMENT: ?PR?_SQUARE_END_XY?RA8876

BL51 BANKED LINKER/LOCATER V6.22                                                      08/26/2015  16:38:21  PAGE 195


*** WARNING L16: UNCALLED SEGMENT, IGNORED FOR OVERLAY PROCESS
    SEGMENT: ?PR?START_CIRCLE_OR_ELLIPSE_FILL?RA8876

*** WARNING L16: UNCALLED SEGMENT, IGNORED FOR OVERLAY PROCESS
    SEGMENT: ?PR?START_LEFT_DOWN_CURVE?RA8876

*** WARNING L16: UNCALLED SEGMENT, IGNORED FOR OVERLAY PROCESS
    SEGMENT: ?PR?START_LEFT_UP_CURVE?RA8876

*** WARNING L16: UNCALLED SEGMENT, IGNORED FOR OVERLAY PROCESS
    SEGMENT: ?PR?START_RIGHT_UP_CURVE?RA8876

*** WARNING L16: UNCALLED SEGMENT, IGNORED FOR OVERLAY PROCESS
    SEGMENT: ?PR?START_RIGHT_DOWN_CURVE?RA8876

*** WARNING L16: UNCALLED SEGMENT, IGNORED FOR OVERLAY PROCESS
    SEGMENT: ?PR?START_LEFT_DOWN_CURVE_FILL?RA8876

*** WARNING L16: UNCALLED SEGMENT, IGNORED FOR OVERLAY PROCESS
    SEGMENT: ?PR?START_LEFT_UP_CURVE_FILL?RA8876

*** WARNING L16: UNCALLED SEGMENT, IGNORED FOR OVERLAY PROCESS
    SEGMENT: ?PR?START_RIGHT_UP_CURVE_FILL?RA8876

*** WARNING L16: UNCALLED SEGMENT, IGNORED FOR OVERLAY PROCESS
    SEGMENT: ?PR?START_RIGHT_DOWN_CURVE_FILL?RA8876

*** WARNING L16: UNCALLED SEGMENT, IGNORED FOR OVERLAY PROCESS
    SEGMENT: ?PR?START_CIRCLE_SQUARE_FILL?RA8876

*** WARNING L16: UNCALLED SEGMENT, IGNORED FOR OVERLAY PROCESS
    SEGMENT: ?PR?_ELLIPSE_CENTER_XY?RA8876

*** WARNING L16: UNCALLED SEGMENT, IGNORED FOR OVERLAY PROCESS
    SEGMENT: ?PR?_SET_PWM_PRESCALER_1_TO_256?RA8876

*** WARNING L16: UNCALLED SEGMENT, IGNORED FOR OVERLAY PROCESS
    SEGMENT: ?PR?SELECT_PWM1_CLOCK_DIVIDED_BY_1?RA8876

*** WARNING L16: UNCALLED SEGMENT, IGNORED FOR OVERLAY PROCESS
    SEGMENT: ?PR?SELECT_PWM1_CLOCK_DIVIDED_BY_2?RA8876

*** WARNING L16: UNCALLED SEGMENT, IGNORED FOR OVERLAY PROCESS
    SEGMENT: ?PR?SELECT_PWM1_CLOCK_DIVIDED_BY_4?RA8876

*** WARNING L16: UNCALLED SEGMENT, IGNORED FOR OVERLAY PROCESS
    SEGMENT: ?PR?SELECT_PWM1_CLOCK_DIVIDED_BY_8?RA8876

*** WARNING L16: UNCALLED SEGMENT, IGNORED FOR OVERLAY PROCESS
    SEGMENT: ?PR?SELECT_PWM0_CLOCK_DIVIDED_BY_1?RA8876

*** WARNING L16: UNCALLED SEGMENT, IGNORED FOR OVERLAY PROCESS
    SEGMENT: ?PR?SELECT_PWM0_CLOCK_DIVIDED_BY_4?RA8876

*** WARNING L16: UNCALLED SEGMENT, IGNORED FOR OVERLAY PROCESS
    SEGMENT: ?PR?SELECT_PWM0_CLOCK_DIVIDED_BY_8?RA8876

BL51 BANKED LINKER/LOCATER V6.22                                                      08/26/2015  16:38:21  PAGE 196


*** WARNING L16: UNCALLED SEGMENT, IGNORED FOR OVERLAY PROCESS
    SEGMENT: ?PR?SELECT_PWM1_IS_ERRORFLAG?RA8876

*** WARNING L16: UNCALLED SEGMENT, IGNORED FOR OVERLAY PROCESS
    SEGMENT: ?PR?SELECT_PWM1?RA8876

*** WARNING L16: UNCALLED SEGMENT, IGNORED FOR OVERLAY PROCESS
    SEGMENT: ?PR?SELECT_PWM1_IS_OSC_CLOCK?RA8876

*** WARNING L16: UNCALLED SEGMENT, IGNORED FOR OVERLAY PROCESS
    SEGMENT: ?PR?SELECT_PWM0_IS_GPIO_C7?RA8876

*** WARNING L16: UNCALLED SEGMENT, IGNORED FOR OVERLAY PROCESS
    SEGMENT: ?PR?SELECT_PWM0_IS_CORE_CLOCK?RA8876

*** WARNING L16: UNCALLED SEGMENT, IGNORED FOR OVERLAY PROCESS
    SEGMENT: ?PR?ENABLE_PWM1_INVERTER?RA8876

*** WARNING L16: UNCALLED SEGMENT, IGNORED FOR OVERLAY PROCESS
    SEGMENT: ?PR?DISABLE_PWM1_INVERTER?RA8876

*** WARNING L16: UNCALLED SEGMENT, IGNORED FOR OVERLAY PROCESS
    SEGMENT: ?PR?AUTO_RELOAD_PWM1?RA8876

*** WARNING L16: UNCALLED SEGMENT, IGNORED FOR OVERLAY PROCESS
    SEGMENT: ?PR?ONE_SHOT_PWM1?RA8876

*** WARNING L16: UNCALLED SEGMENT, IGNORED FOR OVERLAY PROCESS
    SEGMENT: ?PR?START_PWM1?RA8876

*** WARNING L16: UNCALLED SEGMENT, IGNORED FOR OVERLAY PROCESS
    SEGMENT: ?PR?STOP_PWM1?RA8876

*** WARNING L16: UNCALLED SEGMENT, IGNORED FOR OVERLAY PROCESS
    SEGMENT: ?PR?DISABLE_PWM0_DEAD_ZONE?RA8876

*** WARNING L16: UNCALLED SEGMENT, IGNORED FOR OVERLAY PROCESS
    SEGMENT: ?PR?ENABLE_PWM0_INVERTER?RA8876

*** WARNING L16: UNCALLED SEGMENT, IGNORED FOR OVERLAY PROCESS
    SEGMENT: ?PR?DISABLE_PWM0_INVERTER?RA8876

*** WARNING L16: UNCALLED SEGMENT, IGNORED FOR OVERLAY PROCESS
    SEGMENT: ?PR?ONE_SHOT_PWM0?RA8876

*** WARNING L16: UNCALLED SEGMENT, IGNORED FOR OVERLAY PROCESS
    SEGMENT: ?PR?STOP_PWM0?RA8876

*** WARNING L16: UNCALLED SEGMENT, IGNORED FOR OVERLAY PROCESS
    SEGMENT: ?PR?_SET_TIMER0_DEAD_ZONE_LENGTH?RA8876

*** WARNING L16: UNCALLED SEGMENT, IGNORED FOR OVERLAY PROCESS
    SEGMENT: ?PR?_SET_TIMER0_COUNT_BUFFER?RA8876

*** WARNING L16: UNCALLED SEGMENT, IGNORED FOR OVERLAY PROCESS
    SEGMENT: ?PR?_SET_TIMER1_COMPARE_BUFFER?RA8876

BL51 BANKED LINKER/LOCATER V6.22                                                      08/26/2015  16:38:21  PAGE 197


*** WARNING L16: UNCALLED SEGMENT, IGNORED FOR OVERLAY PROCESS
    SEGMENT: ?PR?_SET_TIMER1_COUNT_BUFFER?RA8876

*** WARNING L16: UNCALLED SEGMENT, IGNORED FOR OVERLAY PROCESS
    SEGMENT: ?PR?BTE_DISABLE?RA8876

*** WARNING L16: UNCALLED SEGMENT, IGNORED FOR OVERLAY PROCESS
    SEGMENT: ?PR?PATTERN_FORMAT_8X8?RA8876

*** WARNING L16: UNCALLED SEGMENT, IGNORED FOR OVERLAY PROCESS
    SEGMENT: ?PR?BTE_S0_COLOR_8BPP?RA8876

*** WARNING L16: UNCALLED SEGMENT, IGNORED FOR OVERLAY PROCESS
    SEGMENT: ?PR?BTE_S0_COLOR_24BPP?RA8876

*** WARNING L16: UNCALLED SEGMENT, IGNORED FOR OVERLAY PROCESS
    SEGMENT: ?PR?BTE_S1_COLOR_8BPP?RA8876

*** WARNING L16: UNCALLED SEGMENT, IGNORED FOR OVERLAY PROCESS
    SEGMENT: ?PR?BTE_S1_COLOR_24BPP?RA8876

*** WARNING L16: UNCALLED SEGMENT, IGNORED FOR OVERLAY PROCESS
    SEGMENT: ?PR?BTE_S1_COLOR_CONSTANT?RA8876

*** WARNING L16: UNCALLED SEGMENT, IGNORED FOR OVERLAY PROCESS
    SEGMENT: ?PR?BTE_S1_COLOR_8BIT_ALPHA?RA8876

*** WARNING L16: UNCALLED SEGMENT, IGNORED FOR OVERLAY PROCESS
    SEGMENT: ?PR?BTE_S1_COLOR_16BIT_ALPHA?RA8876

*** WARNING L16: UNCALLED SEGMENT, IGNORED FOR OVERLAY PROCESS
    SEGMENT: ?PR?BTE_DESTINATION_COLOR_8BPP?RA8876

*** WARNING L16: UNCALLED SEGMENT, IGNORED FOR OVERLAY PROCESS
    SEGMENT: ?PR?BTE_DESTINATION_COLOR_24BPP?RA8876

*** WARNING L16: UNCALLED SEGMENT, IGNORED FOR OVERLAY PROCESS
    SEGMENT: ?PR?_S1_CONSTANT_COLOR_256?RA8876

*** WARNING L16: UNCALLED SEGMENT, IGNORED FOR OVERLAY PROCESS
    SEGMENT: ?PR?_S1_CONSTANT_COLOR_65K?RA8876

*** WARNING L16: UNCALLED SEGMENT, IGNORED FOR OVERLAY PROCESS
    SEGMENT: ?PR?_S1_CONSTANT_COLOR_16M?RA8876

*** WARNING L16: UNCALLED SEGMENT, IGNORED FOR OVERLAY PROCESS
    SEGMENT: ?PR?SELECT_SFI_32BIT_ADDRESS?RA8876

*** WARNING L16: UNCALLED SEGMENT, IGNORED FOR OVERLAY PROCESS
    SEGMENT: ?PR?SELECT_SFI_16_DUMMYREAD?RA8876

*** WARNING L16: UNCALLED SEGMENT, IGNORED FOR OVERLAY PROCESS
    SEGMENT: ?PR?SELECT_SFI_24_DUMMYREAD?RA8876

*** WARNING L16: UNCALLED SEGMENT, IGNORED FOR OVERLAY PROCESS
    SEGMENT: ?PR?SELECT_SFI_DUAL_MODE0?RA8876

BL51 BANKED LINKER/LOCATER V6.22                                                      08/26/2015  16:38:21  PAGE 198


*** WARNING L16: UNCALLED SEGMENT, IGNORED FOR OVERLAY PROCESS
    SEGMENT: ?PR?SELECT_SFI_DUAL_MODE1?RA8876

*** WARNING L16: UNCALLED SEGMENT, IGNORED FOR OVERLAY PROCESS
    SEGMENT: ?PR?_SPI_MASTER_FIFO_DATA_PUT?RA8876

*** WARNING L16: UNCALLED SEGMENT, IGNORED FOR OVERLAY PROCESS
    SEGMENT: ?PR?MASK_SPI_MASTER_INTERRUPT_FLAG?RA8876

*** WARNING L16: UNCALLED SEGMENT, IGNORED FOR OVERLAY PROCESS
    SEGMENT: ?PR?SELECT_NSS_DRIVE_ON_XNSFCS0?RA8876

*** WARNING L16: UNCALLED SEGMENT, IGNORED FOR OVERLAY PROCESS
    SEGMENT: ?PR?SELECT_NSS_DRIVE_ON_XNSFCS1?RA8876

*** WARNING L16: UNCALLED SEGMENT, IGNORED FOR OVERLAY PROCESS
    SEGMENT: ?PR?NSS_INACTIVE?RA8876

*** WARNING L16: UNCALLED SEGMENT, IGNORED FOR OVERLAY PROCESS
    SEGMENT: ?PR?NSS_ACTIVE?RA8876

*** WARNING L16: UNCALLED SEGMENT, IGNORED FOR OVERLAY PROCESS
    SEGMENT: ?PR?OVFIRQEN_ENABLE?RA8876

*** WARNING L16: UNCALLED SEGMENT, IGNORED FOR OVERLAY PROCESS
    SEGMENT: ?PR?EMTIRQEN_ENABLE?RA8876

*** WARNING L16: UNCALLED SEGMENT, IGNORED FOR OVERLAY PROCESS
    SEGMENT: ?PR?RESET_CPOL?RA8876

*** WARNING L16: UNCALLED SEGMENT, IGNORED FOR OVERLAY PROCESS
    SEGMENT: ?PR?SET_CPOL?RA8876

*** WARNING L16: UNCALLED SEGMENT, IGNORED FOR OVERLAY PROCESS
    SEGMENT: ?PR?RESET_CPHA?RA8876

*** WARNING L16: UNCALLED SEGMENT, IGNORED FOR OVERLAY PROCESS
    SEGMENT: ?PR?SET_CPHA?RA8876

*** WARNING L16: UNCALLED SEGMENT, IGNORED FOR OVERLAY PROCESS
    SEGMENT: ?PR?TX_FIFO_FULL_FLAG?RA8876

*** WARNING L16: UNCALLED SEGMENT, IGNORED FOR OVERLAY PROCESS
    SEGMENT: ?PR?RX_FIFO_FULL_FLAG?RA8876

*** WARNING L16: UNCALLED SEGMENT, IGNORED FOR OVERLAY PROCESS
    SEGMENT: ?PR?OVFI_FLAG?RA8876

*** WARNING L16: UNCALLED SEGMENT, IGNORED FOR OVERLAY PROCESS
    SEGMENT: ?PR?CLEAR_OVFI_FLAG?RA8876

*** WARNING L16: UNCALLED SEGMENT, IGNORED FOR OVERLAY PROCESS
    SEGMENT: ?PR?EMTI_FLAG?RA8876

*** WARNING L16: UNCALLED SEGMENT, IGNORED FOR OVERLAY PROCESS
    SEGMENT: ?PR?CLEAR_EMTI_FLAG?RA8876

BL51 BANKED LINKER/LOCATER V6.22                                                      08/26/2015  16:38:21  PAGE 199


*** WARNING L16: UNCALLED SEGMENT, IGNORED FOR OVERLAY PROCESS
    SEGMENT: ?PR?_SFI_DMA_DESTINATION_START_ADDRESS?RA8876

*** WARNING L16: UNCALLED SEGMENT, IGNORED FOR OVERLAY PROCESS
    SEGMENT: ?PR?_SFI_DMA_TRANSFER_NUMBER?RA8876

*** WARNING L16: UNCALLED SEGMENT, IGNORED FOR OVERLAY PROCESS
    SEGMENT: ?PR?FONT_SELECT_USERDEFINE_MODE?RA8876

*** WARNING L16: UNCALLED SEGMENT, IGNORED FOR OVERLAY PROCESS
    SEGMENT: ?PR?INTERNAL_CGROM_SELECT_ISOIEC8859_1?RA8876

*** WARNING L16: UNCALLED SEGMENT, IGNORED FOR OVERLAY PROCESS
    SEGMENT: ?PR?INTERNAL_CGROM_SELECT_ISOIEC8859_2?RA8876

*** WARNING L16: UNCALLED SEGMENT, IGNORED FOR OVERLAY PROCESS
    SEGMENT: ?PR?INTERNAL_CGROM_SELECT_ISOIEC8859_3?RA8876

*** WARNING L16: UNCALLED SEGMENT, IGNORED FOR OVERLAY PROCESS
    SEGMENT: ?PR?INTERNAL_CGROM_SELECT_ISOIEC8859_4?RA8876

*** WARNING L16: UNCALLED SEGMENT, IGNORED FOR OVERLAY PROCESS
    SEGMENT: ?PR?ENABLE_FONT_ALIGNMENT?RA8876

*** WARNING L16: UNCALLED SEGMENT, IGNORED FOR OVERLAY PROCESS
    SEGMENT: ?PR?DISABLE_FONT_ALIGNMENT?RA8876

*** WARNING L16: UNCALLED SEGMENT, IGNORED FOR OVERLAY PROCESS
    SEGMENT: ?PR?FONT_0_DEGREE?RA8876

*** WARNING L16: UNCALLED SEGMENT, IGNORED FOR OVERLAY PROCESS
    SEGMENT: ?PR?FONT_90_DEGREE?RA8876

*** WARNING L16: UNCALLED SEGMENT, IGNORED FOR OVERLAY PROCESS
    SEGMENT: ?PR?FONT_WIDTH_X2?RA8876

*** WARNING L16: UNCALLED SEGMENT, IGNORED FOR OVERLAY PROCESS
    SEGMENT: ?PR?FONT_WIDTH_X3?RA8876

*** WARNING L16: UNCALLED SEGMENT, IGNORED FOR OVERLAY PROCESS
    SEGMENT: ?PR?FONT_WIDTH_X4?RA8876

*** WARNING L16: UNCALLED SEGMENT, IGNORED FOR OVERLAY PROCESS
    SEGMENT: ?PR?FONT_HEIGHT_X2?RA8876

*** WARNING L16: UNCALLED SEGMENT, IGNORED FOR OVERLAY PROCESS
    SEGMENT: ?PR?FONT_HEIGHT_X3?RA8876

*** WARNING L16: UNCALLED SEGMENT, IGNORED FOR OVERLAY PROCESS
    SEGMENT: ?PR?FONT_HEIGHT_X4?RA8876

*** WARNING L16: UNCALLED SEGMENT, IGNORED FOR OVERLAY PROCESS
    SEGMENT: ?PR?GTFONT_SELECT_GT21L16TW_GT21H16T1W?RA8876

*** WARNING L16: UNCALLED SEGMENT, IGNORED FOR OVERLAY PROCESS
    SEGMENT: ?PR?GTFONT_SELECT_GT23L16U2W?RA8876

BL51 BANKED LINKER/LOCATER V6.22                                                      08/26/2015  16:38:21  PAGE 200


*** WARNING L16: UNCALLED SEGMENT, IGNORED FOR OVERLAY PROCESS
    SEGMENT: ?PR?GTFONT_SELECT_GT23L24M1Z?RA8876

*** WARNING L16: UNCALLED SEGMENT, IGNORED FOR OVERLAY PROCESS
    SEGMENT: ?PR?GTFONT_SELECT_GT23L32S4W_GT23H32S4W?RA8876

*** WARNING L16: UNCALLED SEGMENT, IGNORED FOR OVERLAY PROCESS
    SEGMENT: ?PR?GTFONT_SELECT_GT20L24F6Y?RA8876

*** WARNING L16: UNCALLED SEGMENT, IGNORED FOR OVERLAY PROCESS
    SEGMENT: ?PR?GTFONT_SELECT_GT21L24S1W?RA8876

*** WARNING L16: UNCALLED SEGMENT, IGNORED FOR OVERLAY PROCESS
    SEGMENT: ?PR?GTFONT_SELECT_GT22L16A1Y?RA8876

*** WARNING L16: UNCALLED SEGMENT, IGNORED FOR OVERLAY PROCESS
    SEGMENT: ?PR?_FONT_LINE_DISTANCE?RA8876

*** WARNING L16: UNCALLED SEGMENT, IGNORED FOR OVERLAY PROCESS
    SEGMENT: ?PR?_SET_FONT_TO_FONT_WIDTH?RA8876

*** WARNING L16: UNCALLED SEGMENT, IGNORED FOR OVERLAY PROCESS
    SEGMENT: ?PR?_FOREGROUND_RGB?RA8876

*** WARNING L16: UNCALLED SEGMENT, IGNORED FOR OVERLAY PROCESS
    SEGMENT: ?PR?_FOREGROUND_COLOR_256?RA8876

*** WARNING L16: UNCALLED SEGMENT, IGNORED FOR OVERLAY PROCESS
    SEGMENT: ?PR?_FOREGROUND_COLOR_16M?RA8876

*** WARNING L16: UNCALLED SEGMENT, IGNORED FOR OVERLAY PROCESS
    SEGMENT: ?PR?_BACKGROUND_RGB?RA8876

*** WARNING L16: UNCALLED SEGMENT, IGNORED FOR OVERLAY PROCESS
    SEGMENT: ?PR?_BACKGROUND_COLOR_256?RA8876

*** WARNING L16: UNCALLED SEGMENT, IGNORED FOR OVERLAY PROCESS
    SEGMENT: ?PR?_BACKGROUND_COLOR_16M?RA8876

*** WARNING L16: UNCALLED SEGMENT, IGNORED FOR OVERLAY PROCESS
    SEGMENT: ?PR?_CGRAM_START_ADDRESS?RA8876

*** WARNING L16: UNCALLED SEGMENT, IGNORED FOR OVERLAY PROCESS
    SEGMENT: ?PR?POWER_NORMAL_MODE?RA8876

*** WARNING L16: UNCALLED SEGMENT, IGNORED FOR OVERLAY PROCESS
    SEGMENT: ?PR?POWER_SAVING_STANDBY_MODE?RA8876

*** WARNING L16: UNCALLED SEGMENT, IGNORED FOR OVERLAY PROCESS
    SEGMENT: ?PR?POWER_SAVING_SUSPEND_MODE?RA8876

*** WARNING L16: UNCALLED SEGMENT, IGNORED FOR OVERLAY PROCESS
    SEGMENT: ?PR?POWER_SAVING_SLEEP_MODE?RA8876

*** WARNING L16: UNCALLED SEGMENT, IGNORED FOR OVERLAY PROCESS
    SEGMENT: ?PR?_RA8876_I2CM_CLOCK_PRESCALE?RA8876

BL51 BANKED LINKER/LOCATER V6.22                                                      08/26/2015  16:38:21  PAGE 201


*** WARNING L16: UNCALLED SEGMENT, IGNORED FOR OVERLAY PROCESS
    SEGMENT: ?PR?_RA8876_I2CM_TRANSMIT_DATA?RA8876

*** WARNING L16: UNCALLED SEGMENT, IGNORED FOR OVERLAY PROCESS
    SEGMENT: ?PR?RA8876_I2CM_RECEIVER_DATA?RA8876

*** WARNING L16: UNCALLED SEGMENT, IGNORED FOR OVERLAY PROCESS
    SEGMENT: ?PR?RA8876_I2CM_STOP?RA8876

*** WARNING L16: UNCALLED SEGMENT, IGNORED FOR OVERLAY PROCESS
    SEGMENT: ?PR?RA8876_I2CM_READ_WITH_ACK?RA8876

*** WARNING L16: UNCALLED SEGMENT, IGNORED FOR OVERLAY PROCESS
    SEGMENT: ?PR?RA8876_I2CM_READ_WITH_NACK?RA8876

*** WARNING L16: UNCALLED SEGMENT, IGNORED FOR OVERLAY PROCESS
    SEGMENT: ?PR?RA8876_I2CM_WRITE_WITH_START?RA8876

*** WARNING L16: UNCALLED SEGMENT, IGNORED FOR OVERLAY PROCESS
    SEGMENT: ?PR?RA8876_I2CM_WRITE?RA8876

*** WARNING L16: UNCALLED SEGMENT, IGNORED FOR OVERLAY PROCESS
    SEGMENT: ?PR?RA8876_I2CM_CHECK_SLAVE_ACK?RA8876

*** WARNING L16: UNCALLED SEGMENT, IGNORED FOR OVERLAY PROCESS
    SEGMENT: ?PR?RA8876_I2CM_BUS_BUSY?RA8876

*** WARNING L16: UNCALLED SEGMENT, IGNORED FOR OVERLAY PROCESS
    SEGMENT: ?PR?RA8876_I2CM_TRANSMIT_PROGRESS?RA8876

*** WARNING L16: UNCALLED SEGMENT, IGNORED FOR OVERLAY PROCESS
    SEGMENT: ?PR?RA8876_I2CM_ARBITRATION?RA8876

*** WARNING L16: UNCALLED SEGMENT, IGNORED FOR OVERLAY PROCESS
    SEGMENT: ?PR?_SET_GPIO_A_IN_OUT?RA8876

*** WARNING L16: UNCALLED SEGMENT, IGNORED FOR OVERLAY PROCESS
    SEGMENT: ?PR?_WRITE_GPIO_A_7_0?RA8876

*** WARNING L16: UNCALLED SEGMENT, IGNORED FOR OVERLAY PROCESS
    SEGMENT: ?PR?READ_GPIO_A_7_0?RA8876

*** WARNING L16: UNCALLED SEGMENT, IGNORED FOR OVERLAY PROCESS
    SEGMENT: ?PR?_WRITE_GPIO_B_7_4?RA8876

*** WARNING L16: UNCALLED SEGMENT, IGNORED FOR OVERLAY PROCESS
    SEGMENT: ?PR?READ_GPIO_B_7_0?RA8876

*** WARNING L16: UNCALLED SEGMENT, IGNORED FOR OVERLAY PROCESS
    SEGMENT: ?PR?_SET_GPIO_C_IN_OUT?RA8876

*** WARNING L16: UNCALLED SEGMENT, IGNORED FOR OVERLAY PROCESS
    SEGMENT: ?PR?_WRITE_GPIO_C_7_0?RA8876

*** WARNING L16: UNCALLED SEGMENT, IGNORED FOR OVERLAY PROCESS
    SEGMENT: ?PR?READ_GPIO_C_7_0?RA8876

BL51 BANKED LINKER/LOCATER V6.22                                                      08/26/2015  16:38:21  PAGE 202


*** WARNING L16: UNCALLED SEGMENT, IGNORED FOR OVERLAY PROCESS
    SEGMENT: ?PR?_SET_GPIO_D_IN_OUT?RA8876

*** WARNING L16: UNCALLED SEGMENT, IGNORED FOR OVERLAY PROCESS
    SEGMENT: ?PR?_WRITE_GPIO_D_7_0?RA8876

*** WARNING L16: UNCALLED SEGMENT, IGNORED FOR OVERLAY PROCESS
    SEGMENT: ?PR?READ_GPIO_D_7_0?RA8876

*** WARNING L16: UNCALLED SEGMENT, IGNORED FOR OVERLAY PROCESS
    SEGMENT: ?PR?_SET_GPIO_E_IN_OUT?RA8876

*** WARNING L16: UNCALLED SEGMENT, IGNORED FOR OVERLAY PROCESS
    SEGMENT: ?PR?_WRITE_GPIO_E_7_0?RA8876

*** WARNING L16: UNCALLED SEGMENT, IGNORED FOR OVERLAY PROCESS
    SEGMENT: ?PR?READ_GPIO_E_7_0?RA8876

*** WARNING L16: UNCALLED SEGMENT, IGNORED FOR OVERLAY PROCESS
    SEGMENT: ?PR?_SET_GPIO_F_IN_OUT?RA8876

*** WARNING L16: UNCALLED SEGMENT, IGNORED FOR OVERLAY PROCESS
    SEGMENT: ?PR?_WRITE_GPIO_F_7_0?RA8876

*** WARNING L16: UNCALLED SEGMENT, IGNORED FOR OVERLAY PROCESS
    SEGMENT: ?PR?READ_GPIO_F_7_0?RA8876

*** WARNING L16: UNCALLED SEGMENT, IGNORED FOR OVERLAY PROCESS
    SEGMENT: ?PR?LONG_KEY_ENABLE?RA8876

*** WARNING L16: UNCALLED SEGMENT, IGNORED FOR OVERLAY PROCESS
    SEGMENT: ?PR?_KEY_SCAN_FREG?RA8876

*** WARNING L16: UNCALLED SEGMENT, IGNORED FOR OVERLAY PROCESS
    SEGMENT: ?PR?KEY_SCAN_WAKEUP_FUNCTION_ENABLE?RA8876

*** WARNING L16: UNCALLED SEGMENT, IGNORED FOR OVERLAY PROCESS
    SEGMENT: ?PR?_LONG_KEY_TIMING_ADJUSTMENT?RA8876

*** WARNING L16: UNCALLED SEGMENT, IGNORED FOR OVERLAY PROCESS
    SEGMENT: ?PR?NUMBERS_OF_KEY_HIT?RA8876

*** WARNING L16: UNCALLED SEGMENT, IGNORED FOR OVERLAY PROCESS
    SEGMENT: ?PR?READ_KEY_STROBE_DATA_0?RA8876

*** WARNING L16: UNCALLED SEGMENT, IGNORED FOR OVERLAY PROCESS
    SEGMENT: ?PR?READ_KEY_STROBE_DATA_1?RA8876

*** WARNING L16: UNCALLED SEGMENT, IGNORED FOR OVERLAY PROCESS
    SEGMENT: ?PR?READ_KEY_STROBE_DATA_2?RA8876

*** WARNING L16: UNCALLED SEGMENT, IGNORED FOR OVERLAY PROCESS
    SEGMENT: ?PR?_SDWRITEBLOCK?RA8876

Program Size: data=9.0 xdata=670 code=59746
LINK/LOCATE RUN COMPLETE.  303 WARNING(S),  0 ERROR(S)
